ccopy_reg
_reconstructor
p0
(clibtbx.env_config
environment
p1
c__builtin__
object
p2
Ntp3
Rp4
(dp5
Vpython_version_major_minor
p6
(I3
I10
tp7
sVbuild_path
p8
g0
(clibtbx.path
absolute_path
p9
g2
Ntp10
Rp11
(dp12
V_path
p13
V/home/conda/feedstock_root/build_artifacts/cctbx-split_1765113483920/_h_env_placehold_placehold_placehold_placehold_placehold_placehold_placehold_placehold_placehold_placehold_placehold_placehold_placehold_placehold_placehold_placehold_placehold_placehold/share/cctbx
p14
sbsV_dispatcher_precall_commands
p15
NsVbin_path
p16
g0
(clibtbx.path
relocatable_path
p17
g2
Ntp18
Rp19
(dp20
V_anchor
p21
g0
(g9
g2
Ntp22
Rp23
(dp24
g13
V/home/conda/feedstock_root/build_artifacts/cctbx-split_1765113483920/_h_env_placehold_placehold_placehold_placehold_placehold_placehold_placehold_placehold_placehold_placehold_placehold_placehold_placehold_placehold_placehold_placehold_placehold_placehold
p25
sbsVrelocatable
p26
Vbin
p27
sbsVexe_path
p28
g19
sVlib_path
p29
g0
(g17
g2
Ntp30
Rp31
(dp32
g21
g23
sg26
Vlib
p33
sbsVinclude_path
p34
g0
(g17
g2
Ntp35
Rp36
(dp37
g21
g23
sg26
Vinclude
p38
sbsVpython_exe
p39
g0
(g17
g2
Ntp40
Rp41
(dp42
g21
g23
sg26
Vbin/python
p43
sbsVinstalled
p44
I01
sVinstalled_modules
p45
(lp46
sVinstalled_order
p47
(lp48
Vlibtbx
p49
aVtbxx
p50
aVboost
p51
aVomptbx
p52
aVfable
p53
aVscitbx
p54
aVcma_es
p55
aVcrys3d
p56
aVannlib
p57
aVchiltbx
p58
aVcctbx
p59
aVucif
p60
aVsmtbx
p61
aVccp4io
p62
aVcbflib
p63
aViotbx
p64
aVdxtbx
p65
aVspotfinder
p66
aVrstbx
p67
aVserialtbx
p68
aVmmtbx
p69
aVcctbx_website
p70
aVgltbx
p71
aVwxtbx
p72
asVcommand_version_suffix
p73
NsVexplicitly_requested_modules
p74
c__builtin__
set
p75
((lp76
Vlibtbx
p77
ag55
aVscitbx
p78
aVsmtbx
p79
aVmmtbx
p80
aVcrys3d
p81
ag71
ag70
ag67
aViotbx
p82
ag72
aVcctbx
p83
aVksdssp
p84
aVfable
p85
ag68
aVspotinder
p86
atp87
Rp88
sVbuild_options
p89
g0
(clibtbx.env_config
build_options
p90
g2
Ntp91
Rp92
(dp93
Vcompiler
p94
Vconda
p95
sVmode
p96
Vrelease
p97
sVwarning_level
p98
I0
sVstatic_libraries
p99
I00
sVstatic_exe
p100
I00
sVscan_boost
p101
I00
sVwrite_full_flex_fwd_h
p102
I00
sVbuild_boost_python_extensions
p103
I01
sVboost_python_no_py_signatures
p104
I00
sVboost_python_bool_int_strict
p105
I01
sVenable_openmp_if_possible
p106
I00
sVenable_boost_threads
p107
I01
sVenable_cuda
p108
I00
sVenable_kokkos
p109
I00
sVuse_conda
p110
I01
sVopt_resources
p111
I00
sVprecompile_headers
p112
I00
sVuse_environment_flags
p113
I01
sVforce_32bit
p114
I00
sVmsvc_arch_flag
p115
NsVenable_cxx11
p116
I00
sVcxxstd
p117
Vc++14
p118
sVskip_phenix_dispatchers
p119
I01
sVoptimization
p120
I01
sVmax_optimized
p121
I00
sVdebug_symbols
p122
I00
sVenv_cxxflags
p123
V-fvisibility-inlines-hidden -fmessage-length=0 -ftree-vectorize -fPIC -fstack-protector-strong -fno-plt -O3 -pipe -isystem /home/conda/feedstock_root/build_artifacts/cctbx-split_1765113483920/_h_env_placehold_placehold_placehold_placehold_placehold_placehold_placehold_placehold_placehold_placehold_placehold_placehold_placehold_placehold_placehold_placehold_placehold_placehold/include -fdebug-prefix-map=/home/conda/feedstock_root/build_artifacts/cctbx-split_1765113483920/work=/usr/local/src/conda/cctbx-base-2025.11 -fdebug-prefix-map=/home/conda/feedstock_root/build_artifacts/cctbx-split_1765113483920/_h_env_placehold_placehold_placehold_placehold_placehold_placehold_placehold_placehold_placehold_placehold_placehold_placehold_placehold_placehold_placehold_placehold_placehold_placehold=/usr/local/src/conda-prefix -O3
p124
sVenv_cflags
p125
V-ftree-vectorize -fPIC -fstack-protector-strong -fno-plt -O3 -pipe -isystem /home/conda/feedstock_root/build_artifacts/cctbx-split_1765113483920/_h_env_placehold_placehold_placehold_placehold_placehold_placehold_placehold_placehold_placehold_placehold_placehold_placehold_placehold_placehold_placehold_placehold_placehold_placehold/include -fdebug-prefix-map=/home/conda/feedstock_root/build_artifacts/cctbx-split_1765113483920/work=/usr/local/src/conda/cctbx-base-2025.11 -fdebug-prefix-map=/home/conda/feedstock_root/build_artifacts/cctbx-split_1765113483920/_h_env_placehold_placehold_placehold_placehold_placehold_placehold_placehold_placehold_placehold_placehold_placehold_placehold_placehold_placehold_placehold_placehold_placehold_placehold=/usr/local/src/conda-prefix -O3
p126
sVenv_cppflags
p127
V-DNDEBUG -D_FORTIFY_SOURCE=2 -O2 -isystem /home/conda/feedstock_root/build_artifacts/cctbx-split_1765113483920/_h_env_placehold_placehold_placehold_placehold_placehold_placehold_placehold_placehold_placehold_placehold_placehold_placehold_placehold_placehold_placehold_placehold_placehold_placehold/include
p128
sVenv_ldflags
p129
V-Wl,-O2 -Wl,--sort-common -Wl,--as-needed -Wl,-z,relro -Wl,-z,now -Wl,--allow-shlib-undefined -Wl,-rpath,/home/conda/feedstock_root/build_artifacts/cctbx-split_1765113483920/_h_env_placehold_placehold_placehold_placehold_placehold_placehold_placehold_placehold_placehold_placehold_placehold_placehold_placehold_placehold_placehold_placehold_placehold_placehold/lib -Wl,-rpath-link,/home/conda/feedstock_root/build_artifacts/cctbx-split_1765113483920/_h_env_placehold_placehold_placehold_placehold_placehold_placehold_placehold_placehold_placehold_placehold_placehold_placehold_placehold_placehold_placehold_placehold_placehold_placehold/lib -L/home/conda/feedstock_root/build_artifacts/cctbx-split_1765113483920/_h_env_placehold_placehold_placehold_placehold_placehold_placehold_placehold_placehold_placehold_placehold_placehold_placehold_placehold_placehold_placehold_placehold_placehold_placehold/lib
p130
sbsVrepository_paths
p131
(lp132
g0
(g17
g2
Ntp133
Rp134
(dp135
g21
g23
sg26
V.
p136
sbag0
(g17
g2
Ntp137
Rp138
(dp139
g21
g23
sg26
Vlib/python3.10/site-packages
p140
sbasVcommand_line_redirections
p141
(dp142
sVmodule_list
p143
(lp144
g0
(clibtbx.env_config
module
p145
g2
Ntp146
Rp147
(dp148
Venv
p149
g4
sVmate_suffix
p150
Vadaptbx
p151
sVname
p152
g49
sVnames
p153
(lp154
g49
aVlibtbx_adaptbx
p155
asVdist_paths
p156
(lp157
g0
(g17
g2
Ntp158
Rp159
(dp160
g21
g23
sg26
Vlib/python3.10/site-packages/libtbx
p161
sbaNasVpython_paths
p162
(lp163
sVrequired_for_build
p164
(lp165
sVrequired_for_use
p166
(lp167
sVoptional
p168
(lp169
sVexclude_from_binary_bundle
p170
(lp171
sVextra_command_line_locations
p172
(lp173
sbag0
(g145
g2
Ntp174
Rp175
(dp176
g149
g4
sg150
g151
sg152
g50
sg153
(lp177
g50
aVtbxx_adaptbx
p178
asg156
(lp179
g0
(g17
g2
Ntp180
Rp181
(dp182
g21
g23
sg26
Vlib/python3.10/site-packages/tbxx
p183
sbaNasg162
(lp184
sg164
(lp185
sg166
(lp186
sg168
(lp187
sg170
(lp188
sg172
(lp189
sbag0
(g145
g2
Ntp190
Rp191
(dp192
g149
g4
sg150
g151
sg152
g51
sg153
(lp193
g51
aVboost_adaptbx
p194
asg156
(lp195
g134
ag0
(g17
g2
Ntp196
Rp197
(dp198
g21
g23
sg26
Vlib/python3.10/site-packages/boost_adaptbx
p199
sbasg162
(lp200
sg164
(lp201
g50
asg166
(lp202
sg168
(lp203
sg170
(lp204
sg172
(lp205
sbag0
(g145
g2
Ntp206
Rp207
(dp208
g149
g4
sg150
g151
sg152
g52
sg153
(lp209
g52
aVomptbx_adaptbx
p210
asg156
(lp211
g0
(g17
g2
Ntp212
Rp213
(dp214
g21
g23
sg26
Vlib/python3.10/site-packages/omptbx
p215
sbaNasg162
(lp216
sg164
(lp217
g51
asg166
(lp218
Vboost_adaptbx
p219
asg168
(lp220
sg170
(lp221
sg172
(lp222
sbag0
(g145
g2
Ntp223
Rp224
(dp225
g149
g4
sg150
g151
sg152
g53
sg153
(lp226
g53
aVfable_adaptbx
p227
asg156
(lp228
g0
(g17
g2
Ntp229
Rp230
(dp231
g21
g23
sg26
Vlib/python3.10/site-packages/fable
p232
sbaNasg162
(lp233
sg164
(lp234
sg166
(lp235
sg168
(lp236
g51
ag50
aVdocutils
p237
asg170
(lp238
sg172
(lp239
sbag0
(g145
g2
Ntp240
Rp241
(dp242
g149
g4
sg150
g151
sg152
g54
sg153
(lp243
g54
aVscitbx_adaptbx
p244
asg156
(lp245
g0
(g17
g2
Ntp246
Rp247
(dp248
g21
g23
sg26
Vlib/python3.10/site-packages/scitbx
p249
sbaNasg162
(lp250
sg164
(lp251
g51
asg166
(lp252
g219
ag52
asg168
(lp253
Vcma_es
p254
ag53
asg170
(lp255
sg172
(lp256
sbag0
(g145
g2
Ntp257
Rp258
(dp259
g149
g4
sg150
g151
sg152
g55
sg153
(lp260
g55
aVcma_es_adaptbx
p261
asg156
(lp262
g0
(g17
g2
Ntp263
Rp264
(dp265
g21
g23
sg26
Vlib/python3.10/site-packages/cma_es
p266
sbaNasg162
(lp267
sg164
(lp268
g54
asg166
(lp269
g54
asg168
(lp270
sg170
(lp271
sg172
(lp272
sbag0
(g145
g2
Ntp273
Rp274
(dp275
g149
g4
sg150
g151
sg152
g56
sg153
(lp276
g56
aVcrys3d_adaptbx
p277
asg156
(lp278
g0
(g17
g2
Ntp279
Rp280
(dp281
g21
g23
sg26
Vlib/python3.10/site-packages/crys3d
p282
sbaNasg162
(lp283
sg164
(lp284
sg166
(lp285
sg168
(lp286
sg170
(lp287
sg172
(lp288
sbag0
(g145
g2
Ntp289
Rp290
(dp291
g149
g4
sg150
g151
sg152
g57
sg153
(lp292
g57
aVannlib_adaptbx
p293
asg156
(lp294
g0
(g17
g2
Ntp295
Rp296
(dp297
g21
g23
sg26
Vlib/python3.10/site-packages/annlib
p298
sbag0
(g17
g2
Ntp299
Rp300
(dp301
g21
g23
sg26
Vlib/python3.10/site-packages/annlib_adaptbx
p302
sbasg162
(lp303
sg164
(lp304
g54
asg166
(lp305
sg168
(lp306
sg170
(lp307
sg172
(lp308
sbag0
(g145
g2
Ntp309
Rp310
(dp311
g149
g4
sg150
g151
sg152
g58
sg153
(lp312
g58
aVchiltbx_adaptbx
p313
asg156
(lp314
g0
(g17
g2
Ntp315
Rp316
(dp317
g21
g23
sg26
Vlib/python3.10/site-packages/chiltbx
p318
sbaNasg162
(lp319
sg164
(lp320
sg166
(lp321
sg168
(lp322
sg170
(lp323
sg172
(lp324
sbag0
(g145
g2
Ntp325
Rp326
(dp327
g149
g4
sg150
g151
sg152
g59
sg153
(lp328
g59
aVcctbx_adaptbx
p329
asg156
(lp330
g0
(g17
g2
Ntp331
Rp332
(dp333
g21
g23
sg26
Vlib/python3.10/site-packages/cctbx
p334
sbaNasg162
(lp335
sg164
(lp336
g58
asg166
(lp337
g54
asg168
(lp338
sg170
(lp339
V^reference/henke/
p340
aV^reference/sasaki/
p341
asg172
(lp342
sbag0
(g145
g2
Ntp343
Rp344
(dp345
g149
g4
sg150
g151
sg152
g60
sg153
(lp346
g60
aVucif_adaptbx
p347
asg156
(lp348
g0
(g17
g2
Ntp349
Rp350
(dp351
g21
g23
sg26
Vlib/python3.10/site-packages/ucif
p352
sbaNasg162
(lp353
sg164
(lp354
sg166
(lp355
sg168
(lp356
sg170
(lp357
sg172
(lp358
sbag0
(g145
g2
Ntp359
Rp360
(dp361
g149
g4
sg150
g151
sg152
g61
sg153
(lp362
g61
aVsmtbx_adaptbx
p363
asg156
(lp364
g0
(g17
g2
Ntp365
Rp366
(dp367
g21
g23
sg26
Vlib/python3.10/site-packages/smtbx
p368
sbaNasg162
(lp369
sg164
(lp370
g59
asg166
(lp371
g59
asg168
(lp372
sg170
(lp373
sg172
(lp374
sbag0
(g145
g2
Ntp375
Rp376
(dp377
g149
g4
sg150
g151
sg152
g62
sg153
(lp378
g62
aVccp4io_adaptbx
p379
asg156
(lp380
g0
(g17
g2
Ntp381
Rp382
(dp383
g21
g23
sg26
Vlib/python3.10/site-packages/ccp4io
p384
sbag0
(g17
g2
Ntp385
Rp386
(dp387
g21
g23
sg26
Vlib/python3.10/site-packages/ccp4io_adaptbx
p388
sbasg162
(lp389
sg164
(lp390
sg166
(lp391
sg168
(lp392
g51
asg170
(lp393
sg172
(lp394
sbag0
(g145
g2
Ntp395
Rp396
(dp397
g149
g4
sg150
g151
sg152
g64
sg153
(lp398
g64
aViotbx_adaptbx
p399
asg156
(lp400
g0
(g17
g2
Ntp401
Rp402
(dp403
g21
g23
sg26
Vlib/python3.10/site-packages/iotbx
p404
sbaNasg162
(lp405
sg164
(lp406
sg166
(lp407
g59
ag53
ag60
ag61
asg168
(lp408
g62
ag63
ag65
asg170
(lp409
sg172
(lp410
sbag0
(g145
g2
Ntp411
Rp412
(dp413
g149
g4
sg150
g151
sg152
g66
sg153
(lp414
g66
aVspotfinder_adaptbx
p415
asg156
(lp416
g0
(g17
g2
Ntp417
Rp418
(dp419
g21
g23
sg26
Vlib/python3.10/site-packages/spotfinder
p420
sbaNasg162
(lp421
sg164
(lp422
g65
asg166
(lp423
g64
ag57
asg168
(lp424
sg170
(lp425
sg172
(lp426
sbag0
(g145
g2
Ntp427
Rp428
(dp429
g149
g4
sg150
g151
sg152
g67
sg153
(lp430
g67
aVrstbx_adaptbx
p431
asg156
(lp432
g0
(g17
g2
Ntp433
Rp434
(dp435
g21
g23
sg26
Vlib/python3.10/site-packages/rstbx
p436
sbaNasg162
(lp437
sg164
(lp438
g57
ag65
ag66
asg166
(lp439
g64
asg168
(lp440
g57
asg170
(lp441
sg172
(lp442
sbag0
(g145
g2
Ntp443
Rp444
(dp445
g149
g4
sg150
g151
sg152
g68
sg153
(lp446
g68
aVserialtbx_adaptbx
p447
asg156
(lp448
g0
(g17
g2
Ntp449
Rp450
(dp451
g21
g23
sg26
Vlib/python3.10/site-packages/serialtbx
p452
sbaNasg162
(lp453
sg164
(lp454
sg166
(lp455
sg168
(lp456
sg170
(lp457
sg172
(lp458
sbag0
(g145
g2
Ntp459
Rp460
(dp461
g149
g4
sg150
g151
sg152
g69
sg153
(lp462
g69
aVmmtbx_adaptbx
p463
asg156
(lp464
g0
(g17
g2
Ntp465
Rp466
(dp467
g21
g23
sg26
Vlib/python3.10/site-packages/mmtbx
p468
sbaNasg162
(lp469
sg164
(lp470
sg166
(lp471
g64
ag62
asg168
(lp472
Vreduce
p473
aVprobe
p474
aVking
p475
asg170
(lp476
sg172
(lp477
sbag0
(g145
g2
Ntp478
Rp479
(dp480
g149
g4
sg150
g151
sg152
g70
sg153
(lp481
g70
aVcctbx_website_adaptbx
p482
asg156
(lp483
g0
(g17
g2
Ntp484
Rp485
(dp486
g21
g23
sg26
Vlib/python3.10/site-packages/cctbx_website
p487
sbaNasg162
(lp488
sg164
(lp489
sg166
(lp490
Vmmtbx
p491
asg168
(lp492
sg170
(lp493
sg172
(lp494
sbag0
(g145
g2
Ntp495
Rp496
(dp497
g149
g4
sg150
g151
sg152
g71
sg153
(lp498
g71
aVgltbx_adaptbx
p499
asg156
(lp500
g0
(g17
g2
Ntp501
Rp502
(dp503
g21
g23
sg26
Vlib/python3.10/site-packages/gltbx
p504
sbaNasg162
(lp505
sg164
(lp506
g54
asg166
(lp507
sg168
(lp508
sg170
(lp509
sg172
(lp510
sbag0
(g145
g2
Ntp511
Rp512
(dp513
g149
g4
sg150
g151
sg152
g72
sg153
(lp514
g72
aVwxtbx_adaptbx
p515
asg156
(lp516
g0
(g17
g2
Ntp517
Rp518
(dp519
g21
g23
sg26
Vlib/python3.10/site-packages/wxtbx
p520
sbaNasg162
(lp521
sg164
(lp522
sg166
(lp523
sg168
(lp524
sg170
(lp525
sg172
(lp526
sbasVmodule_dict
p527
(dp528
g49
g147
sg55
g258
sg54
g241
sg51
g191
sg50
g175
sg52
g207
sg53
g224
sg56
g274
sg67
g428
sg57
g290
sg64
g396
sg59
g326
sg58
g310
sg60
g344
sg61
g360
sg62
g376
sg66
g412
sg68
g444
sg69
g460
sg70
g479
sg71
g496
sg72
g512
ssVmodule_dist_paths
p529
(dp530
g49
g159
sg55
g264
sg54
g247
sg51
g0
(g17
g2
Ntp531
Rp532
(dp533
g21
g23
sg26
V./include
p534
sbsg194
g197
sg50
g181
sg52
g213
sg53
g230
sg56
g280
sg67
g434
sg57
g296
sg293
g300
sg64
g402
sg59
g332
sg58
g316
sg60
g350
sg61
g366
sg62
g382
sg379
g386
sg66
g418
sg68
g450
sg69
g466
sg70
g485
sg71
g502
sg72
g518
ssVmissing_for_build
p535
g75
((lp536
tp537
Rp538
sVmissing_for_use
p539
g75
((lp540
tp541
Rp542
sVmissing_optional
p543
g75
((lp544
g475
ag237
ag473
ag474
atp545
Rp546
sVscons_dist_path
p547
g134
sVpythonpath
p548
(lp549
sg26
I01
sVno_bin_python
p550
I01
sVpath_utility
p551
g0
(g17
g2
Ntp552
Rp553
(dp554
g21
g23
sg26
Vlib/python3.10/site-packages/libtbx/command_line/path_utility.py
p555
sbsV_dispatcher_registry
p556
(dp557
g0
(g17
g2
Ntp558
Rp559
(dp560
g21
g23
sg26
Vbin/libtbx.python
p561
sbg41
sg0
(g17
g2
Ntp562
Rp563
(dp564
g21
g23
sg26
Vbin/boost.python
p565
sbg41
sg0
(g17
g2
Ntp566
Rp567
(dp568
g21
g23
sg26
Vbin/omptbx.python
p569
sbg41
sg0
(g17
g2
Ntp570
Rp571
(dp572
g21
g23
sg26
Vbin/fable.python
p573
sbg41
sg0
(g17
g2
Ntp574
Rp575
(dp576
g21
g23
sg26
Vbin/scitbx.python
p577
sbg41
sg0
(g17
g2
Ntp578
Rp579
(dp580
g21
g23
sg26
Vbin/cma_es.python
p581
sbg41
sg0
(g17
g2
Ntp582
Rp583
(dp584
g21
g23
sg26
Vbin/crys3d.python
p585
sbg41
sg0
(g17
g2
Ntp586
Rp587
(dp588
g21
g23
sg26
Vbin/annlib.python
p589
sbg41
sg0
(g17
g2
Ntp590
Rp591
(dp592
g21
g23
sg26
Vbin/cctbx.python
p593
sbg41
sg0
(g17
g2
Ntp594
Rp595
(dp596
g21
g23
sg26
Vbin/smtbx.python
p597
sbg41
sg0
(g17
g2
Ntp598
Rp599
(dp600
g21
g23
sg26
Vbin/ccp4io.python
p601
sbg41
sg0
(g17
g2
Ntp602
Rp603
(dp604
g21
g23
sg26
Vbin/iotbx.python
p605
sbg41
sg0
(g17
g2
Ntp606
Rp607
(dp608
g21
g23
sg26
Vbin/spotfinder.python
p609
sbg41
sg0
(g17
g2
Ntp610
Rp611
(dp612
g21
g23
sg26
Vbin/rstbx.python
p613
sbg41
sg0
(g17
g2
Ntp614
Rp615
(dp616
g21
g23
sg26
Vbin/serialtbx.python
p617
sbg41
sg0
(g17
g2
Ntp618
Rp619
(dp620
g21
g23
sg26
Vbin/mmtbx.python
p621
sbg41
sg0
(g17
g2
Ntp622
Rp623
(dp624
g21
g23
sg26
Vbin/cctbx_website.python
p625
sbg41
sg0
(g17
g2
Ntp626
Rp627
(dp628
g21
g23
sg26
Vbin/gltbx.python
p629
sbg41
sg0
(g17
g2
Ntp630
Rp631
(dp632
g21
g23
sg26
Vbin/wxtbx.python
p633
sbg41
sg0
(g17
g2
Ntp634
Rp635
(dp636
g21
g23
sg26
Vbin/libtbx.show_build_path
p637
sbg0
(g17
g2
Ntp638
Rp639
(dp640
g21
g23
sg26
Vlib/python3.10/site-packages/libtbx/command_line/show_build_path.py
p641
sbsg0
(g17
g2
Ntp642
Rp643
(dp644
g21
g23
sg26
Vbin/boost.show_build_path
p645
sbg0
(g17
g2
Ntp646
Rp647
(dp648
g21
g23
sg26
Vlib/python3.10/site-packages/libtbx/command_line/show_build_path.py
p649
sbsg0
(g17
g2
Ntp650
Rp651
(dp652
g21
g23
sg26
Vbin/omptbx.show_build_path
p653
sbg0
(g17
g2
Ntp654
Rp655
(dp656
g21
g23
sg26
Vlib/python3.10/site-packages/libtbx/command_line/show_build_path.py
p657
sbsg0
(g17
g2
Ntp658
Rp659
(dp660
g21
g23
sg26
Vbin/fable.show_build_path
p661
sbg0
(g17
g2
Ntp662
Rp663
(dp664
g21
g23
sg26
Vlib/python3.10/site-packages/libtbx/command_line/show_build_path.py
p665
sbsg0
(g17
g2
Ntp666
Rp667
(dp668
g21
g23
sg26
Vbin/scitbx.show_build_path
p669
sbg0
(g17
g2
Ntp670
Rp671
(dp672
g21
g23
sg26
Vlib/python3.10/site-packages/libtbx/command_line/show_build_path.py
p673
sbsg0
(g17
g2
Ntp674
Rp675
(dp676
g21
g23
sg26
Vbin/cma_es.show_build_path
p677
sbg0
(g17
g2
Ntp678
Rp679
(dp680
g21
g23
sg26
Vlib/python3.10/site-packages/libtbx/command_line/show_build_path.py
p681
sbsg0
(g17
g2
Ntp682
Rp683
(dp684
g21
g23
sg26
Vbin/crys3d.show_build_path
p685
sbg0
(g17
g2
Ntp686
Rp687
(dp688
g21
g23
sg26
Vlib/python3.10/site-packages/libtbx/command_line/show_build_path.py
p689
sbsg0
(g17
g2
Ntp690
Rp691
(dp692
g21
g23
sg26
Vbin/annlib.show_build_path
p693
sbg0
(g17
g2
Ntp694
Rp695
(dp696
g21
g23
sg26
Vlib/python3.10/site-packages/libtbx/command_line/show_build_path.py
p697
sbsg0
(g17
g2
Ntp698
Rp699
(dp700
g21
g23
sg26
Vbin/cctbx.show_build_path
p701
sbg0
(g17
g2
Ntp702
Rp703
(dp704
g21
g23
sg26
Vlib/python3.10/site-packages/libtbx/command_line/show_build_path.py
p705
sbsg0
(g17
g2
Ntp706
Rp707
(dp708
g21
g23
sg26
Vbin/smtbx.show_build_path
p709
sbg0
(g17
g2
Ntp710
Rp711
(dp712
g21
g23
sg26
Vlib/python3.10/site-packages/libtbx/command_line/show_build_path.py
p713
sbsg0
(g17
g2
Ntp714
Rp715
(dp716
g21
g23
sg26
Vbin/ccp4io.show_build_path
p717
sbg0
(g17
g2
Ntp718
Rp719
(dp720
g21
g23
sg26
Vlib/python3.10/site-packages/libtbx/command_line/show_build_path.py
p721
sbsg0
(g17
g2
Ntp722
Rp723
(dp724
g21
g23
sg26
Vbin/iotbx.show_build_path
p725
sbg0
(g17
g2
Ntp726
Rp727
(dp728
g21
g23
sg26
Vlib/python3.10/site-packages/libtbx/command_line/show_build_path.py
p729
sbsg0
(g17
g2
Ntp730
Rp731
(dp732
g21
g23
sg26
Vbin/spotfinder.show_build_path
p733
sbg0
(g17
g2
Ntp734
Rp735
(dp736
g21
g23
sg26
Vlib/python3.10/site-packages/libtbx/command_line/show_build_path.py
p737
sbsg0
(g17
g2
Ntp738
Rp739
(dp740
g21
g23
sg26
Vbin/rstbx.show_build_path
p741
sbg0
(g17
g2
Ntp742
Rp743
(dp744
g21
g23
sg26
Vlib/python3.10/site-packages/libtbx/command_line/show_build_path.py
p745
sbsg0
(g17
g2
Ntp746
Rp747
(dp748
g21
g23
sg26
Vbin/serialtbx.show_build_path
p749
sbg0
(g17
g2
Ntp750
Rp751
(dp752
g21
g23
sg26
Vlib/python3.10/site-packages/libtbx/command_line/show_build_path.py
p753
sbsg0
(g17
g2
Ntp754
Rp755
(dp756
g21
g23
sg26
Vbin/mmtbx.show_build_path
p757
sbg0
(g17
g2
Ntp758
Rp759
(dp760
g21
g23
sg26
Vlib/python3.10/site-packages/libtbx/command_line/show_build_path.py
p761
sbsg0
(g17
g2
Ntp762
Rp763
(dp764
g21
g23
sg26
Vbin/cctbx_website.show_build_path
p765
sbg0
(g17
g2
Ntp766
Rp767
(dp768
g21
g23
sg26
Vlib/python3.10/site-packages/libtbx/command_line/show_build_path.py
p769
sbsg0
(g17
g2
Ntp770
Rp771
(dp772
g21
g23
sg26
Vbin/gltbx.show_build_path
p773
sbg0
(g17
g2
Ntp774
Rp775
(dp776
g21
g23
sg26
Vlib/python3.10/site-packages/libtbx/command_line/show_build_path.py
p777
sbsg0
(g17
g2
Ntp778
Rp779
(dp780
g21
g23
sg26
Vbin/wxtbx.show_build_path
p781
sbg0
(g17
g2
Ntp782
Rp783
(dp784
g21
g23
sg26
Vlib/python3.10/site-packages/libtbx/command_line/show_build_path.py
p785
sbsg0
(g17
g2
Ntp786
Rp787
(dp788
g21
g23
sg26
Vbin/libtbx.show_dist_paths
p789
sbg0
(g17
g2
Ntp790
Rp791
(dp792
g21
g23
sg26
Vlib/python3.10/site-packages/libtbx/command_line/show_dist_paths.py
p793
sbsg0
(g17
g2
Ntp794
Rp795
(dp796
g21
g23
sg26
Vbin/boost.show_dist_paths
p797
sbg0
(g17
g2
Ntp798
Rp799
(dp800
g21
g23
sg26
Vlib/python3.10/site-packages/libtbx/command_line/show_dist_paths.py
p801
sbsg0
(g17
g2
Ntp802
Rp803
(dp804
g21
g23
sg26
Vbin/omptbx.show_dist_paths
p805
sbg0
(g17
g2
Ntp806
Rp807
(dp808
g21
g23
sg26
Vlib/python3.10/site-packages/libtbx/command_line/show_dist_paths.py
p809
sbsg0
(g17
g2
Ntp810
Rp811
(dp812
g21
g23
sg26
Vbin/fable.show_dist_paths
p813
sbg0
(g17
g2
Ntp814
Rp815
(dp816
g21
g23
sg26
Vlib/python3.10/site-packages/libtbx/command_line/show_dist_paths.py
p817
sbsg0
(g17
g2
Ntp818
Rp819
(dp820
g21
g23
sg26
Vbin/scitbx.show_dist_paths
p821
sbg0
(g17
g2
Ntp822
Rp823
(dp824
g21
g23
sg26
Vlib/python3.10/site-packages/libtbx/command_line/show_dist_paths.py
p825
sbsg0
(g17
g2
Ntp826
Rp827
(dp828
g21
g23
sg26
Vbin/cma_es.show_dist_paths
p829
sbg0
(g17
g2
Ntp830
Rp831
(dp832
g21
g23
sg26
Vlib/python3.10/site-packages/libtbx/command_line/show_dist_paths.py
p833
sbsg0
(g17
g2
Ntp834
Rp835
(dp836
g21
g23
sg26
Vbin/crys3d.show_dist_paths
p837
sbg0
(g17
g2
Ntp838
Rp839
(dp840
g21
g23
sg26
Vlib/python3.10/site-packages/libtbx/command_line/show_dist_paths.py
p841
sbsg0
(g17
g2
Ntp842
Rp843
(dp844
g21
g23
sg26
Vbin/annlib.show_dist_paths
p845
sbg0
(g17
g2
Ntp846
Rp847
(dp848
g21
g23
sg26
Vlib/python3.10/site-packages/libtbx/command_line/show_dist_paths.py
p849
sbsg0
(g17
g2
Ntp850
Rp851
(dp852
g21
g23
sg26
Vbin/cctbx.show_dist_paths
p853
sbg0
(g17
g2
Ntp854
Rp855
(dp856
g21
g23
sg26
Vlib/python3.10/site-packages/libtbx/command_line/show_dist_paths.py
p857
sbsg0
(g17
g2
Ntp858
Rp859
(dp860
g21
g23
sg26
Vbin/smtbx.show_dist_paths
p861
sbg0
(g17
g2
Ntp862
Rp863
(dp864
g21
g23
sg26
Vlib/python3.10/site-packages/libtbx/command_line/show_dist_paths.py
p865
sbsg0
(g17
g2
Ntp866
Rp867
(dp868
g21
g23
sg26
Vbin/ccp4io.show_dist_paths
p869
sbg0
(g17
g2
Ntp870
Rp871
(dp872
g21
g23
sg26
Vlib/python3.10/site-packages/libtbx/command_line/show_dist_paths.py
p873
sbsg0
(g17
g2
Ntp874
Rp875
(dp876
g21
g23
sg26
Vbin/iotbx.show_dist_paths
p877
sbg0
(g17
g2
Ntp878
Rp879
(dp880
g21
g23
sg26
Vlib/python3.10/site-packages/libtbx/command_line/show_dist_paths.py
p881
sbsg0
(g17
g2
Ntp882
Rp883
(dp884
g21
g23
sg26
Vbin/spotfinder.show_dist_paths
p885
sbg0
(g17
g2
Ntp886
Rp887
(dp888
g21
g23
sg26
Vlib/python3.10/site-packages/libtbx/command_line/show_dist_paths.py
p889
sbsg0
(g17
g2
Ntp890
Rp891
(dp892
g21
g23
sg26
Vbin/rstbx.show_dist_paths
p893
sbg0
(g17
g2
Ntp894
Rp895
(dp896
g21
g23
sg26
Vlib/python3.10/site-packages/libtbx/command_line/show_dist_paths.py
p897
sbsg0
(g17
g2
Ntp898
Rp899
(dp900
g21
g23
sg26
Vbin/serialtbx.show_dist_paths
p901
sbg0
(g17
g2
Ntp902
Rp903
(dp904
g21
g23
sg26
Vlib/python3.10/site-packages/libtbx/command_line/show_dist_paths.py
p905
sbsg0
(g17
g2
Ntp906
Rp907
(dp908
g21
g23
sg26
Vbin/mmtbx.show_dist_paths
p909
sbg0
(g17
g2
Ntp910
Rp911
(dp912
g21
g23
sg26
Vlib/python3.10/site-packages/libtbx/command_line/show_dist_paths.py
p913
sbsg0
(g17
g2
Ntp914
Rp915
(dp916
g21
g23
sg26
Vbin/cctbx_website.show_dist_paths
p917
sbg0
(g17
g2
Ntp918
Rp919
(dp920
g21
g23
sg26
Vlib/python3.10/site-packages/libtbx/command_line/show_dist_paths.py
p921
sbsg0
(g17
g2
Ntp922
Rp923
(dp924
g21
g23
sg26
Vbin/gltbx.show_dist_paths
p925
sbg0
(g17
g2
Ntp926
Rp927
(dp928
g21
g23
sg26
Vlib/python3.10/site-packages/libtbx/command_line/show_dist_paths.py
p929
sbsg0
(g17
g2
Ntp930
Rp931
(dp932
g21
g23
sg26
Vbin/wxtbx.show_dist_paths
p933
sbg0
(g17
g2
Ntp934
Rp935
(dp936
g21
g23
sg26
Vlib/python3.10/site-packages/libtbx/command_line/show_dist_paths.py
p937
sbsg0
(g17
g2
Ntp938
Rp939
(dp940
g21
g23
sg26
Vbin/libtbx.bootstrap
p941
sbg0
(g17
g2
Ntp942
Rp943
(dp944
g21
g23
sg26
Vlib/python3.10/site-packages/libtbx/command_line/bootstrap.py
p945
sbsg0
(g17
g2
Ntp946
Rp947
(dp948
g21
g23
sg26
Vbin/libtbx.prime_factors_of
p949
sbg0
(g17
g2
Ntp950
Rp951
(dp952
g21
g23
sg26
Vlib/python3.10/site-packages/libtbx/command_line/prime_factors_of.py
p953
sbsg0
(g17
g2
Ntp954
Rp955
(dp956
g21
g23
sg26
Vbin/libtbx.path_utility
p957
sbg0
(g17
g2
Ntp958
Rp959
(dp960
g21
g23
sg26
Vlib/python3.10/site-packages/libtbx/command_line/path_utility.py
p961
sbsg0
(g17
g2
Ntp962
Rp963
(dp964
g21
g23
sg26
Vbin/libtbx.show_numpy_version
p965
sbg0
(g17
g2
Ntp966
Rp967
(dp968
g21
g23
sg26
Vlib/python3.10/site-packages/libtbx/command_line/show_numpy_version.py
p969
sbsg0
(g17
g2
Ntp970
Rp971
(dp972
g21
g23
sg26
Vbin/libtbx.tcsh
p973
sbg0
(g17
g2
Ntp974
Rp975
(dp976
g21
g23
sg26
Vlib/python3.10/site-packages/libtbx/command_line/tcsh.sh
p977
sbsg0
(g17
g2
Ntp978
Rp979
(dp980
g21
g23
sg26
Vbin/libtbx.remove_tree
p981
sbg0
(g17
g2
Ntp982
Rp983
(dp984
g21
g23
sg26
Vlib/python3.10/site-packages/libtbx/command_line/remove_tree.py
p985
sbsg0
(g17
g2
Ntp986
Rp987
(dp988
g21
g23
sg26
Vbin/libtbx.add_from_future_import_division
p989
sbg0
(g17
g2
Ntp990
Rp991
(dp992
g21
g23
sg26
Vlib/python3.10/site-packages/libtbx/command_line/add_from_future_import_division.py
p993
sbsg0
(g17
g2
Ntp994
Rp995
(dp996
g21
g23
sg26
Vbin/libtbx.exec
p997
sbg0
(g17
g2
Ntp998
Rp999
(dp1000
g21
g23
sg26
Vlib/python3.10/site-packages/libtbx/command_line/exec.sh
p1001
sbsg0
(g17
g2
Ntp1002
Rp1003
(dp1004
g21
g23
sg26
Vbin/libtbx.run_tests_parallel
p1005
sbg0
(g17
g2
Ntp1006
Rp1007
(dp1008
g21
g23
sg26
Vlib/python3.10/site-packages/libtbx/command_line/run_tests_parallel.py
p1009
sbsg0
(g17
g2
Ntp1010
Rp1011
(dp1012
g21
g23
sg26
Vbin/libtbx.bash
p1013
sbg0
(g17
g2
Ntp1014
Rp1015
(dp1016
g21
g23
sg26
Vlib/python3.10/site-packages/libtbx/command_line/bash.sh
p1017
sbsg0
(g17
g2
Ntp1018
Rp1019
(dp1020
g21
g23
sg26
Vbin/libtbx.assert_stdin_contains_strings
p1021
sbg0
(g17
g2
Ntp1022
Rp1023
(dp1024
g21
g23
sg26
Vlib/python3.10/site-packages/libtbx/command_line/assert_stdin_contains_strings.py
p1025
sbsg0
(g17
g2
Ntp1026
Rp1027
(dp1028
g21
g23
sg26
Vbin/libtbx.assert_stdin_does_not_contain_strings
p1029
sbg1023
sg0
(g17
g2
Ntp1030
Rp1031
(dp1032
g21
g23
sg26
Vbin/libtbx.dtrace
p1033
sbg0
(g17
g2
Ntp1034
Rp1035
(dp1036
g21
g23
sg26
Vlib/python3.10/site-packages/libtbx/command_line/dtrace.py
p1037
sbsg0
(g17
g2
Ntp1038
Rp1039
(dp1040
g21
g23
sg26
Vbin/libtbx.import_all_ext
p1041
sbg0
(g17
g2
Ntp1042
Rp1043
(dp1044
g21
g23
sg26
Vlib/python3.10/site-packages/libtbx/command_line/import_all_ext.py
p1045
sbsg0
(g17
g2
Ntp1046
Rp1047
(dp1048
g21
g23
sg26
Vbin/libtbx.chunk
p1049
sbg0
(g17
g2
Ntp1050
Rp1051
(dp1052
g21
g23
sg26
Vlib/python3.10/site-packages/libtbx/command_line/cctbx_chunk.py
p1053
sbsg0
(g17
g2
Ntp1054
Rp1055
(dp1056
g21
g23
sg26
Vbin/libtbx.show_python_sys_executable
p1057
sbg0
(g17
g2
Ntp1058
Rp1059
(dp1060
g21
g23
sg26
Vlib/python3.10/site-packages/libtbx/command_line/show_python_sys_executable.py
p1061
sbsg0
(g17
g2
Ntp1062
Rp1063
(dp1064
g21
g23
sg26
Vbin/libtbx.sge_qstat_counts
p1065
sbg0
(g17
g2
Ntp1066
Rp1067
(dp1068
g21
g23
sg26
Vlib/python3.10/site-packages/libtbx/command_line/sge_qstat_counts.py
p1069
sbsg0
(g17
g2
Ntp1070
Rp1071
(dp1072
g21
g23
sg26
Vbin/libtbx.wait_for_file
p1073
sbg0
(g17
g2
Ntp1074
Rp1075
(dp1076
g21
g23
sg26
Vlib/python3.10/site-packages/libtbx/command_line/wait_for_file.py
p1077
sbsg0
(g17
g2
Ntp1078
Rp1079
(dp1080
g21
g23
sg26
Vbin/libtbx.reindent
p1081
sbg0
(g17
g2
Ntp1082
Rp1083
(dp1084
g21
g23
sg26
Vlib/python3.10/site-packages/libtbx/command_line/reindent.py
p1085
sbsg0
(g17
g2
Ntp1086
Rp1087
(dp1088
g21
g23
sg26
Vbin/libtbx.make_dist
p1089
sbg0
(g17
g2
Ntp1090
Rp1091
(dp1092
g21
g23
sg26
Vlib/python3.10/site-packages/libtbx/command_line/make_dist.py
p1093
sbsg0
(g17
g2
Ntp1094
Rp1095
(dp1096
g21
g23
sg26
Vbin/libtbx.show_number_of_processors
p1097
sbg0
(g17
g2
Ntp1098
Rp1099
(dp1100
g21
g23
sg26
Vlib/python3.10/site-packages/libtbx/command_line/show_number_of_processors.py
p1101
sbsg0
(g17
g2
Ntp1102
Rp1103
(dp1104
g21
g23
sg26
Vbin/libtbx.create_installer
p1105
sbg0
(g17
g2
Ntp1106
Rp1107
(dp1108
g21
g23
sg26
Vlib/python3.10/site-packages/libtbx/command_line/create_installer.py
p1109
sbsg0
(g17
g2
Ntp1110
Rp1111
(dp1112
g21
g23
sg26
Vbin/libtbx.show_but_no_repr
p1113
sbg0
(g17
g2
Ntp1114
Rp1115
(dp1116
g21
g23
sg26
Vlib/python3.10/site-packages/libtbx/command_line/show_but_no_repr.py
p1117
sbsg0
(g17
g2
Ntp1118
Rp1119
(dp1120
g21
g23
sg26
Vbin/libtbx.find_clutter
p1121
sbg0
(g17
g2
Ntp1122
Rp1123
(dp1124
g21
g23
sg26
Vlib/python3.10/site-packages/libtbx/command_line/find_clutter.py
p1125
sbsg0
(g17
g2
Ntp1126
Rp1127
(dp1128
g21
g23
sg26
Vbin/sphinx.build
p1129
sbg0
(g17
g2
Ntp1130
Rp1131
(dp1132
g21
g23
sg26
Vlib/python3.10/site-packages/libtbx/command_line/sphinx_build.py
p1133
sbsg0
(g17
g2
Ntp1134
Rp1135
(dp1136
g21
g23
sg26
Vbin/libtbx.remote_processing
p1137
sbg0
(g17
g2
Ntp1138
Rp1139
(dp1140
g21
g23
sg26
Vlib/python3.10/site-packages/libtbx/command_line/remote_processing.py
p1141
sbsg0
(g17
g2
Ntp1142
Rp1143
(dp1144
g21
g23
sg26
Vbin/libtbx.py_compile_all
p1145
sbg0
(g17
g2
Ntp1146
Rp1147
(dp1148
g21
g23
sg26
Vlib/python3.10/site-packages/libtbx/command_line/py_compile_all.py
p1149
sbsg0
(g17
g2
Ntp1150
Rp1151
(dp1152
g21
g23
sg26
Vbin/libtbx.show_tests
p1153
sbg0
(g17
g2
Ntp1154
Rp1155
(dp1156
g21
g23
sg26
Vlib/python3.10/site-packages/libtbx/command_line/show_tests.py
p1157
sbsg0
(g17
g2
Ntp1158
Rp1159
(dp1160
g21
g23
sg26
Vbin/libtbx.sh
p1161
sbg0
(g17
g2
Ntp1162
Rp1163
(dp1164
g21
g23
sg26
Vlib/python3.10/site-packages/libtbx/command_line/sh.sh
p1165
sbsg0
(g17
g2
Ntp1166
Rp1167
(dp1168
g21
g23
sg26
Vbin/libtbx.any2unix
p1169
sbg0
(g17
g2
Ntp1170
Rp1171
(dp1172
g21
g23
sg26
Vlib/python3.10/site-packages/libtbx/command_line/any2unix.py
p1173
sbsg0
(g17
g2
Ntp1174
Rp1175
(dp1176
g21
g23
sg26
Vbin/libtbx.show_python_dependencies
p1177
sbg0
(g17
g2
Ntp1178
Rp1179
(dp1180
g21
g23
sg26
Vlib/python3.10/site-packages/libtbx/command_line/show_python_dependencies.py
p1181
sbsg0
(g17
g2
Ntp1182
Rp1183
(dp1184
g21
g23
sg26
Vbin/libtbx.resource_monitor_plot
p1185
sbg0
(g17
g2
Ntp1186
Rp1187
(dp1188
g21
g23
sg26
Vlib/python3.10/site-packages/libtbx/command_line/resource_monitor_plot.py
p1189
sbsg0
(g17
g2
Ntp1190
Rp1191
(dp1192
g21
g23
sg26
Vbin/libtbx.unpack_in_sources
p1193
sbg0
(g17
g2
Ntp1194
Rp1195
(dp1196
g21
g23
sg26
Vlib/python3.10/site-packages/libtbx/command_line/unpack_in_sources.csh
p1197
sbsg0
(g17
g2
Ntp1198
Rp1199
(dp1200
g21
g23
sg26
Vbin/libtbx.list_modules
p1201
sbg0
(g17
g2
Ntp1202
Rp1203
(dp1204
g21
g23
sg26
Vlib/python3.10/site-packages/libtbx/command_line/list_modules.py
p1205
sbsg0
(g17
g2
Ntp1206
Rp1207
(dp1208
g21
g23
sg26
Vbin/libtbx.show_module_dependencies
p1209
sbg0
(g17
g2
Ntp1210
Rp1211
(dp1212
g21
g23
sg26
Vlib/python3.10/site-packages/libtbx/command_line/show_module_dependencies.py
p1213
sbsg0
(g17
g2
Ntp1214
Rp1215
(dp1216
g21
g23
sg26
Vbin/libtbx.extract_code_from_txt
p1217
sbg0
(g17
g2
Ntp1218
Rp1219
(dp1220
g21
g23
sg26
Vlib/python3.10/site-packages/libtbx/command_line/extract_code_from_txt.py
p1221
sbsg0
(g17
g2
Ntp1222
Rp1223
(dp1224
g21
g23
sg26
Vbin/libtbx.start_binary_bundle
p1225
sbg0
(g17
g2
Ntp1226
Rp1227
(dp1228
g21
g23
sg26
Vlib/python3.10/site-packages/libtbx/command_line/start_binary_bundle.py
p1229
sbsg0
(g17
g2
Ntp1230
Rp1231
(dp1232
g21
g23
sg26
Vbin/libtbx.show_full_command_path
p1233
sbg0
(g17
g2
Ntp1234
Rp1235
(dp1236
g21
g23
sg26
Vlib/python3.10/site-packages/libtbx/command_line/show_full_command_path.py
p1237
sbsg0
(g17
g2
Ntp1238
Rp1239
(dp1240
g21
g23
sg26
Vbin/libtbx.raise_exception_for_testing
p1241
sbg0
(g17
g2
Ntp1242
Rp1243
(dp1244
g21
g23
sg26
Vlib/python3.10/site-packages/libtbx/command_line/raise_exception_for_testing.py
p1245
sbsg0
(g17
g2
Ntp1246
Rp1247
(dp1248
g21
g23
sg26
Vbin/libtbx.help
p1249
sbg0
(g17
g2
Ntp1250
Rp1251
(dp1252
g21
g23
sg26
Vlib/python3.10/site-packages/libtbx/command_line/help.py
p1253
sbsg0
(g17
g2
Ntp1254
Rp1255
(dp1256
g21
g23
sg26
Vbin/libtbx.list_source_files_sorted_by_size
p1257
sbg0
(g17
g2
Ntp1258
Rp1259
(dp1260
g21
g23
sg26
Vlib/python3.10/site-packages/libtbx/command_line/list_source_files_sorted_by_size.py
p1261
sbsg0
(g17
g2
Ntp1262
Rp1263
(dp1264
g21
g23
sg26
Vbin/libtbx.find_pdb_mmcif_problems
p1265
sbg0
(g17
g2
Ntp1266
Rp1267
(dp1268
g21
g23
sg26
Vlib/python3.10/site-packages/libtbx/command_line/find_pdb_mmcif_problems.py
p1269
sbsg0
(g17
g2
Ntp1270
Rp1271
(dp1272
g21
g23
sg26
Vbin/libtbx.analyse_code_comments
p1273
sbg0
(g17
g2
Ntp1274
Rp1275
(dp1276
g21
g23
sg26
Vlib/python3.10/site-packages/libtbx/command_line/analyse_code_comments.py
p1277
sbsg0
(g17
g2
Ntp1278
Rp1279
(dp1280
g21
g23
sg26
Vbin/libtbx.assert_stdin_ends_with
p1281
sbg0
(g17
g2
Ntp1282
Rp1283
(dp1284
g21
g23
sg26
Vlib/python3.10/site-packages/libtbx/command_line/assert_stdin_ends_with.py
p1285
sbsg0
(g17
g2
Ntp1286
Rp1287
(dp1288
g21
g23
sg26
Vbin/libtbx.create_install_script_bat
p1289
sbg0
(g17
g2
Ntp1290
Rp1291
(dp1292
g21
g23
sg26
Vlib/python3.10/site-packages/libtbx/command_line/create_install_script_bat.py
p1293
sbsg0
(g17
g2
Ntp1294
Rp1295
(dp1296
g21
g23
sg26
Vbin/libtbx.refresh
p1297
sbg0
(g17
g2
Ntp1298
Rp1299
(dp1300
g21
g23
sg26
Vlib/python3.10/site-packages/libtbx/command_line/refresh.sh
p1301
sbsg0
(g17
g2
Ntp1302
Rp1303
(dp1304
g21
g23
sg26
Vbin/libtbx.csh
p1305
sbg0
(g17
g2
Ntp1306
Rp1307
(dp1308
g21
g23
sg26
Vlib/python3.10/site-packages/libtbx/command_line/csh.sh
p1309
sbsg0
(g17
g2
Ntp1310
Rp1311
(dp1312
g21
g23
sg26
Vbin/libtbx.phil
p1313
sbg0
(g17
g2
Ntp1314
Rp1315
(dp1316
g21
g23
sg26
Vlib/python3.10/site-packages/libtbx/command_line/phil.py
p1317
sbsg0
(g17
g2
Ntp1318
Rp1319
(dp1320
g21
g23
sg26
Vbin/libtbx.find_in_repositories
p1321
sbg0
(g17
g2
Ntp1322
Rp1323
(dp1324
g21
g23
sg26
Vlib/python3.10/site-packages/libtbx/command_line/find_in_repositories.py
p1325
sbsg0
(g17
g2
Ntp1326
Rp1327
(dp1328
g21
g23
sg26
Vbin/libtbx.show_environ_usage
p1329
sbg0
(g17
g2
Ntp1330
Rp1331
(dp1332
g21
g23
sg26
Vlib/python3.10/site-packages/libtbx/command_line/show_environ_usage.py
p1333
sbsg0
(g17
g2
Ntp1334
Rp1335
(dp1336
g21
g23
sg26
Vbin/libtbx.clear_paths
p1337
sbg0
(g17
g2
Ntp1338
Rp1339
(dp1340
g21
g23
sg26
Vlib/python3.10/site-packages/libtbx/command_line/clear_paths.py
p1341
sbsg0
(g17
g2
Ntp1342
Rp1343
(dp1344
g21
g23
sg26
Vbin/libtbx.show_date_and_time
p1345
sbg0
(g17
g2
Ntp1346
Rp1347
(dp1348
g21
g23
sg26
Vlib/python3.10/site-packages/libtbx/command_line/show_date_and_time.py
p1349
sbsg0
(g17
g2
Ntp1350
Rp1351
(dp1352
g21
g23
sg26
Vbin/libtbx.find_under_build
p1353
sbg0
(g17
g2
Ntp1354
Rp1355
(dp1356
g21
g23
sg26
Vlib/python3.10/site-packages/libtbx/command_line/find_under_build.py
p1357
sbsg0
(g17
g2
Ntp1358
Rp1359
(dp1360
g21
g23
sg26
Vbin/libtbx.printenv
p1361
sbg0
(g17
g2
Ntp1362
Rp1363
(dp1364
g21
g23
sg26
Vlib/python3.10/site-packages/libtbx/command_line/printenv.py
p1365
sbsg0
(g17
g2
Ntp1366
Rp1367
(dp1368
g21
g23
sg26
Vbin/libtbx.find_reserved_names
p1369
sbg0
(g17
g2
Ntp1370
Rp1371
(dp1372
g21
g23
sg26
Vlib/python3.10/site-packages/libtbx/command_line/find_reserved_names.py
p1373
sbsg0
(g17
g2
Ntp1374
Rp1375
(dp1376
g21
g23
sg26
Vbin/libtbx.show_commands
p1377
sbg0
(g17
g2
Ntp1378
Rp1379
(dp1380
g21
g23
sg26
Vlib/python3.10/site-packages/libtbx/command_line/show_commands.py
p1381
sbsg0
(g17
g2
Ntp1382
Rp1383
(dp1384
g21
g23
sg26
Vbin/libtbx.clean_clutter
p1385
sbg0
(g17
g2
Ntp1386
Rp1387
(dp1388
g21
g23
sg26
Vlib/python3.10/site-packages/libtbx/command_line/clean_clutter.py
p1389
sbsg0
(g17
g2
Ntp1390
Rp1391
(dp1392
g21
g23
sg26
Vbin/libtbx.find_untested
p1393
sbg0
(g17
g2
Ntp1394
Rp1395
(dp1396
g21
g23
sg26
Vlib/python3.10/site-packages/libtbx/command_line/find_untested.py
p1397
sbsg0
(g17
g2
Ntp1398
Rp1399
(dp1400
g21
g23
sg26
Vbin/libtbx.import_all_python
p1401
sbg0
(g17
g2
Ntp1402
Rp1403
(dp1404
g21
g23
sg26
Vlib/python3.10/site-packages/libtbx/command_line/import_all_python.py
p1405
sbsg0
(g17
g2
Ntp1406
Rp1407
(dp1408
g21
g23
sg26
Vbin/libtbx.env_run
p1409
sbg0
(g17
g2
Ntp1410
Rp1411
(dp1412
g21
g23
sg26
Vlib/python3.10/site-packages/libtbx/command_line/env_run.py
p1413
sbsg0
(g17
g2
Ntp1414
Rp1415
(dp1416
g21
g23
sg26
Vbin/libtbx.show_lib_path
p1417
sbg0
(g17
g2
Ntp1418
Rp1419
(dp1420
g21
g23
sg26
Vlib/python3.10/site-packages/libtbx/command_line/show_lib_path.py
p1421
sbsg0
(g17
g2
Ntp1422
Rp1423
(dp1424
g21
g23
sg26
Vbin/libtbx.list_files
p1425
sbg0
(g17
g2
Ntp1426
Rp1427
(dp1428
g21
g23
sg26
Vlib/python3.10/site-packages/libtbx/command_line/list_files.py
p1429
sbsg0
(g17
g2
Ntp1430
Rp1431
(dp1432
g21
g23
sg26
Vbin/libtbx.find_unused_imports_crude
p1433
sbg0
(g17
g2
Ntp1434
Rp1435
(dp1436
g21
g23
sg26
Vlib/python3.10/site-packages/libtbx/command_line/find_unused_imports_crude.py
p1437
sbsg0
(g17
g2
Ntp1438
Rp1439
(dp1440
g21
g23
sg26
Vbin/libtbx.show_variable_names
p1441
sbg0
(g17
g2
Ntp1442
Rp1443
(dp1444
g21
g23
sg26
Vlib/python3.10/site-packages/libtbx/command_line/show_variable_names.py
p1445
sbsg0
(g17
g2
Ntp1446
Rp1447
(dp1448
g21
g23
sg26
Vbin/libtbx.show_pythonpath
p1449
sbg0
(g17
g2
Ntp1450
Rp1451
(dp1452
g21
g23
sg26
Vlib/python3.10/site-packages/libtbx/command_line/show_pythonpath.py
p1453
sbsg0
(g17
g2
Ntp1454
Rp1455
(dp1456
g21
g23
sg26
Vbin/libtbx.configure
p1457
sbg0
(g17
g2
Ntp1458
Rp1459
(dp1460
g21
g23
sg26
Vlib/python3.10/site-packages/libtbx/command_line/configure.sh
p1461
sbsg0
(g17
g2
Ntp1462
Rp1463
(dp1464
g21
g23
sg26
Vbin/libtbx.find_unused_imports
p1465
sbg0
(g17
g2
Ntp1466
Rp1467
(dp1468
g21
g23
sg26
Vlib/python3.10/site-packages/libtbx/command_line/find_unused_imports.py
p1469
sbsg0
(g17
g2
Ntp1470
Rp1471
(dp1472
g21
g23
sg26
Vbin/libtbx.make_sphinx_html
p1473
sbg0
(g17
g2
Ntp1474
Rp1475
(dp1476
g21
g23
sg26
Vlib/python3.10/site-packages/libtbx/command_line/make_sphinx_html.py
p1477
sbsg0
(g17
g2
Ntp1478
Rp1479
(dp1480
g21
g23
sg26
Vbin/libtbx.latex
p1481
sbg0
(g17
g2
Ntp1482
Rp1483
(dp1484
g21
g23
sg26
Vlib/python3.10/site-packages/libtbx/command_line/latex.sh
p1485
sbsg0
(g17
g2
Ntp1486
Rp1487
(dp1488
g21
g23
sg26
Vbin/libtbx.git_avoid_merges
p1489
sbg0
(g17
g2
Ntp1490
Rp1491
(dp1492
g21
g23
sg26
Vlib/python3.10/site-packages/libtbx/command_line/git_avoid_merges.py
p1493
sbsg0
(g17
g2
Ntp1494
Rp1495
(dp1496
g21
g23
sg26
Vbin/libtbx.show_numeric_version
p1497
sbg0
(g17
g2
Ntp1498
Rp1499
(dp1500
g21
g23
sg26
Vlib/python3.10/site-packages/libtbx/command_line/show_numeric_version.py
p1501
sbsg0
(g17
g2
Ntp1502
Rp1503
(dp1504
g21
g23
sg26
Vbin/libtbx.line_count
p1505
sbg0
(g17
g2
Ntp1506
Rp1507
(dp1508
g21
g23
sg26
Vlib/python3.10/site-packages/libtbx/command_line/line_count.py
p1509
sbsg0
(g17
g2
Ntp1510
Rp1511
(dp1512
g21
g23
sg26
Vbin/libtbx.valgrind
p1513
sbg0
(g17
g2
Ntp1514
Rp1515
(dp1516
g21
g23
sg26
Vlib/python3.10/site-packages/libtbx/command_line/valgrind.sh
p1517
sbsg0
(g17
g2
Ntp1518
Rp1519
(dp1520
g21
g23
sg26
Vbin/libtbx.create_cctbx_bundle_for_installer
p1521
sbg0
(g17
g2
Ntp1522
Rp1523
(dp1524
g21
g23
sg26
Vlib/python3.10/site-packages/libtbx/command_line/create_cctbx_bundle_for_installer.py
p1525
sbsg0
(g17
g2
Ntp1526
Rp1527
(dp1528
g21
g23
sg26
Vbin/libtbx.bibtex
p1529
sbg0
(g17
g2
Ntp1530
Rp1531
(dp1532
g21
g23
sg26
Vlib/python3.10/site-packages/libtbx/command_line/bibtex.sh
p1533
sbsg0
(g17
g2
Ntp1534
Rp1535
(dp1536
g21
g23
sg26
Vbin/libtbx.show_host_and_user
p1537
sbg0
(g17
g2
Ntp1538
Rp1539
(dp1540
g21
g23
sg26
Vlib/python3.10/site-packages/libtbx/command_line/show_host_and_user.py
p1541
sbsg0
(g17
g2
Ntp1542
Rp1543
(dp1544
g21
g23
sg26
Vbin/libtbx.sge_available_slots
p1545
sbg0
(g17
g2
Ntp1546
Rp1547
(dp1548
g21
g23
sg26
Vlib/python3.10/site-packages/libtbx/command_line/sge_available_slots.py
p1549
sbsg0
(g17
g2
Ntp1550
Rp1551
(dp1552
g21
g23
sg26
Vbin/libtbx.assert_not_show_diff
p1553
sbg0
(g17
g2
Ntp1554
Rp1555
(dp1556
g21
g23
sg26
Vlib/python3.10/site-packages/libtbx/command_line/assert_not_show_diff.py
p1557
sbsg0
(g17
g2
Ntp1558
Rp1559
(dp1560
g21
g23
sg26
Vbin/libtbx.start_process
p1561
sbg0
(g17
g2
Ntp1562
Rp1563
(dp1564
g21
g23
sg26
Vlib/python3.10/site-packages/libtbx/command_line/start_process.py
p1565
sbsg0
(g17
g2
Ntp1566
Rp1567
(dp1568
g21
g23
sg26
Vbin/libtbx.install
p1569
sbg0
(g17
g2
Ntp1570
Rp1571
(dp1572
g21
g23
sg26
Vlib/python3.10/site-packages/libtbx/command_line/install.py
p1573
sbsg0
(g17
g2
Ntp1574
Rp1575
(dp1576
g21
g23
sg26
Vbin/libtbx.create_mac_app
p1577
sbg0
(g17
g2
Ntp1578
Rp1579
(dp1580
g21
g23
sg26
Vlib/python3.10/site-packages/libtbx/command_line/create_mac_app.py
p1581
sbsg0
(g17
g2
Ntp1582
Rp1583
(dp1584
g21
g23
sg26
Vbin/libtbx.remove_unused_imports
p1585
sbg0
(g17
g2
Ntp1586
Rp1587
(dp1588
g21
g23
sg26
Vlib/python3.10/site-packages/libtbx/command_line/remove_unused_imports.py
p1589
sbsg0
(g17
g2
Ntp1590
Rp1591
(dp1592
g21
g23
sg26
Vbin/libtbx.install_conda
p1593
sbg0
(g17
g2
Ntp1594
Rp1595
(dp1596
g21
g23
sg26
Vlib/python3.10/site-packages/libtbx/command_line/install_conda.py
p1597
sbsg0
(g17
g2
Ntp1598
Rp1599
(dp1600
g21
g23
sg26
Vbin/libtbx.show_include_paths
p1601
sbg0
(g17
g2
Ntp1602
Rp1603
(dp1604
g21
g23
sg26
Vlib/python3.10/site-packages/libtbx/command_line/show_include_paths.py
p1605
sbsg0
(g17
g2
Ntp1606
Rp1607
(dp1608
g21
g23
sg26
Vbin/libtbx.parallel_simple
p1609
sbg0
(g17
g2
Ntp1610
Rp1611
(dp1612
g21
g23
sg26
Vlib/python3.10/site-packages/libtbx/command_line/parallel_simple.py
p1613
sbsg0
(g17
g2
Ntp1614
Rp1615
(dp1616
g21
g23
sg26
Vbin/libtbx.create_selfx
p1617
sbg0
(g17
g2
Ntp1618
Rp1619
(dp1620
g21
g23
sg26
Vlib/python3.10/site-packages/libtbx/command_line/create_selfx.py
p1621
sbsg0
(g17
g2
Ntp1622
Rp1623
(dp1624
g21
g23
sg26
Vbin/libtbx.check_libcpp
p1625
sbg0
(g17
g2
Ntp1626
Rp1627
(dp1628
g21
g23
sg26
Vlib/python3.10/site-packages/libtbx/command_line/check_libcpp.py
p1629
sbsg0
(g17
g2
Ntp1630
Rp1631
(dp1632
g21
g23
sg26
Vbin/libtbx.run_pickled_function
p1633
sbg0
(g17
g2
Ntp1634
Rp1635
(dp1636
g21
g23
sg26
Vlib/python3.10/site-packages/libtbx/command_line/run_pickled_function.py
p1637
sbsg0
(g17
g2
Ntp1638
Rp1639
(dp1640
g21
g23
sg26
Vbin/libtbx.pdflatex
p1641
sbg0
(g17
g2
Ntp1642
Rp1643
(dp1644
g21
g23
sg26
Vlib/python3.10/site-packages/libtbx/command_line/pdflatex.sh
p1645
sbsg0
(g17
g2
Ntp1646
Rp1647
(dp1648
g21
g23
sg26
Vbin/libtbx.scons
p1649
sbg0
(g17
g2
Ntp1650
Rp1651
(dp1652
g21
g23
sg26
Vlib/python3.10/site-packages/libtbx/command_line/scons.py
p1653
sbsg0
(g17
g2
Ntp1654
Rp1655
(dp1656
g21
g23
sg26
Vbin/libtbx.gdb
p1657
sbg0
(g17
g2
Ntp1658
Rp1659
(dp1660
g21
g23
sg26
Vlib/python3.10/site-packages/libtbx/command_line/gdb.sh
p1661
sbsg0
(g17
g2
Ntp1662
Rp1663
(dp1664
g21
g23
sg26
Vbin/libtbx.nequal
p1665
sbg0
(g17
g2
Ntp1666
Rp1667
(dp1668
g21
g23
sg26
Vlib/python3.10/site-packages/libtbx/command_line/nequal.py
p1669
sbsg0
(g17
g2
Ntp1670
Rp1671
(dp1672
g21
g23
sg26
Vbin/libtbx.create_windows_exe
p1673
sbg0
(g17
g2
Ntp1674
Rp1675
(dp1676
g21
g23
sg26
Vlib/python3.10/site-packages/libtbx/command_line/create_windows_exe.py
p1677
sbsg0
(g17
g2
Ntp1678
Rp1679
(dp1680
g21
g23
sg26
Vbin/libtbx.bundle_as_exe
p1681
sbg0
(g17
g2
Ntp1682
Rp1683
(dp1684
g21
g23
sg26
Vlib/python3.10/site-packages/libtbx/command_line/bundle_as_exe.py
p1685
sbsg0
(g17
g2
Ntp1686
Rp1687
(dp1688
g21
g23
sg26
Vbin/libtbx.create_unzipsfx
p1689
sbg0
(g17
g2
Ntp1690
Rp1691
(dp1692
g21
g23
sg26
Vlib/python3.10/site-packages/libtbx/command_line/create_unzipsfx.py
p1693
sbsg0
(g17
g2
Ntp1694
Rp1695
(dp1696
g21
g23
sg26
Vbin/libtbx.find_old_style_classes
p1697
sbg0
(g17
g2
Ntp1698
Rp1699
(dp1700
g21
g23
sg26
Vlib/python3.10/site-packages/libtbx/command_line/find_old_style_classes.py
p1701
sbsg0
(g17
g2
Ntp1702
Rp1703
(dp1704
g21
g23
sg26
Vbin/libtbx.show_bin_path
p1705
sbg0
(g17
g2
Ntp1706
Rp1707
(dp1708
g21
g23
sg26
Vlib/python3.10/site-packages/libtbx/command_line/show_bin_path.py
p1709
sbsg0
(g17
g2
Ntp1710
Rp1711
(dp1712
g21
g23
sg26
Vbin/libtbx.bundle_as_selfx
p1713
sbg0
(g17
g2
Ntp1714
Rp1715
(dp1716
g21
g23
sg26
Vlib/python3.10/site-packages/libtbx/command_line/bundle_as_selfx.csh
p1717
sbsg0
(g17
g2
Ntp1718
Rp1719
(dp1720
g21
g23
sg26
Vbin/libtbx.seconds_since_the_epoch
p1721
sbg0
(g17
g2
Ntp1722
Rp1723
(dp1724
g21
g23
sg26
Vlib/python3.10/site-packages/libtbx/command_line/seconds_since_the_epoch.py
p1725
sbsg0
(g17
g2
Ntp1726
Rp1727
(dp1728
g21
g23
sg26
Vbin/libtbx.find_files
p1729
sbg0
(g17
g2
Ntp1730
Rp1731
(dp1732
g21
g23
sg26
Vlib/python3.10/site-packages/libtbx/command_line/find_files.py
p1733
sbsg0
(g17
g2
Ntp1734
Rp1735
(dp1736
g21
g23
sg26
Vbin/libtbx.add_docstrings_with_ai
p1737
sbg0
(g17
g2
Ntp1738
Rp1739
(dp1740
g21
g23
sg26
Vlib/python3.10/site-packages/libtbx/command_line/add_docstrings_with_ai.py
p1741
sbsg0
(g17
g2
Ntp1742
Rp1743
(dp1744
g21
g23
sg26
Vbin/libtbx.show_env
p1745
sbg0
(g17
g2
Ntp1746
Rp1747
(dp1748
g21
g23
sg26
Vlib/python3.10/site-packages/libtbx/command_line/show_env.py
p1749
sbsg0
(g17
g2
Ntp1750
Rp1751
(dp1752
g21
g23
sg26
Vbin/libtbx.easy_qsub
p1753
sbg0
(g17
g2
Ntp1754
Rp1755
(dp1756
g21
g23
sg26
Vlib/python3.10/site-packages/libtbx/command_line/easy_qsub.py
p1757
sbsg0
(g17
g2
Ntp1758
Rp1759
(dp1760
g21
g23
sg26
Vbin/libtbx.show_repository_paths
p1761
sbg0
(g17
g2
Ntp1762
Rp1763
(dp1764
g21
g23
sg26
Vlib/python3.10/site-packages/libtbx/command_line/show_repository_paths.py
p1765
sbsg0
(g17
g2
Ntp1766
Rp1767
(dp1768
g21
g23
sg26
Vbin/libtbx.epydoc_run
p1769
sbg0
(g17
g2
Ntp1770
Rp1771
(dp1772
g21
g23
sg26
Vlib/python3.10/site-packages/libtbx/command_line/epydoc_run.py
p1773
sbsg0
(g17
g2
Ntp1774
Rp1775
(dp1776
g21
g23
sg26
Vbin/libtbx.assert_line_count
p1777
sbg0
(g17
g2
Ntp1778
Rp1779
(dp1780
g21
g23
sg26
Vlib/python3.10/site-packages/libtbx/command_line/assert_line_count.py
p1781
sbsg0
(g17
g2
Ntp1782
Rp1783
(dp1784
g21
g23
sg26
Vbin/libtbx.assert_stdin
p1785
sbg0
(g17
g2
Ntp1786
Rp1787
(dp1788
g21
g23
sg26
Vlib/python3.10/site-packages/libtbx/command_line/assert_stdin.py
p1789
sbsg0
(g17
g2
Ntp1790
Rp1791
(dp1792
g21
g23
sg26
Vbin/libtbx.show_all_on_path
p1793
sbg0
(g17
g2
Ntp1794
Rp1795
(dp1796
g21
g23
sg26
Vlib/python3.10/site-packages/libtbx/command_line/show_all_on_path.py
p1797
sbsg0
(g17
g2
Ntp1798
Rp1799
(dp1800
g21
g23
sg26
Vbin/libtbx.show_build_options
p1801
sbg0
(g17
g2
Ntp1802
Rp1803
(dp1804
g21
g23
sg26
Vlib/python3.10/site-packages/libtbx/command_line/show_build_options.py
p1805
sbsg0
(g17
g2
Ntp1806
Rp1807
(dp1808
g21
g23
sg26
Vbin/boost.lcm
p1809
sbg0
(g17
g2
Ntp1810
Rp1811
(dp1812
g21
g23
sg26
Vlib/python3.10/site-packages/boost_adaptbx/command_line/lcm.py
p1813
sbsg0
(g17
g2
Ntp1814
Rp1815
(dp1816
g21
g23
sg26
Vbin/boost_adaptbx.divide_by_zero
p1817
sbg0
(g17
g2
Ntp1818
Rp1819
(dp1820
g21
g23
sg26
Vlib/python3.10/site-packages/boost_adaptbx/command_line/divide_by_zero.py
p1821
sbsg0
(g17
g2
Ntp1822
Rp1823
(dp1824
g21
g23
sg26
Vbin/boost_adaptbx.nested_cpp_loops_with_check_signals
p1825
sbg0
(g17
g2
Ntp1826
Rp1827
(dp1828
g21
g23
sg26
Vlib/python3.10/site-packages/boost_adaptbx/command_line/nested_cpp_loops_with_check_signals.py
p1829
sbsg0
(g17
g2
Ntp1830
Rp1831
(dp1832
g21
g23
sg26
Vbin/boost.gcd
p1833
sbg0
(g17
g2
Ntp1834
Rp1835
(dp1836
g21
g23
sg26
Vlib/python3.10/site-packages/boost_adaptbx/command_line/gcd.py
p1837
sbsg0
(g17
g2
Ntp1838
Rp1839
(dp1840
g21
g23
sg26
Vbin/boost_adaptbx.inexact
p1841
sbg0
(g17
g2
Ntp1842
Rp1843
(dp1844
g21
g23
sg26
Vlib/python3.10/site-packages/boost_adaptbx/command_line/inexact.py
p1845
sbsg0
(g17
g2
Ntp1846
Rp1847
(dp1848
g21
g23
sg26
Vbin/boost_adaptbx.show_platform_info
p1849
sbg0
(g17
g2
Ntp1850
Rp1851
(dp1852
g21
g23
sg26
Vlib/python3.10/site-packages/boost_adaptbx/command_line/show_platform_info.py
p1853
sbsg0
(g17
g2
Ntp1854
Rp1855
(dp1856
g21
g23
sg26
Vbin/boost_adaptbx.int_overflow
p1857
sbg0
(g17
g2
Ntp1858
Rp1859
(dp1860
g21
g23
sg26
Vlib/python3.10/site-packages/boost_adaptbx/command_line/int_overflow.py
p1861
sbsg0
(g17
g2
Ntp1862
Rp1863
(dp1864
g21
g23
sg26
Vbin/boost_adaptbx.show_environ_usage
p1865
sbg0
(g17
g2
Ntp1866
Rp1867
(dp1868
g21
g23
sg26
Vlib/python3.10/site-packages/boost_adaptbx/command_line/show_environ_usage.py
p1869
sbsg0
(g17
g2
Ntp1870
Rp1871
(dp1872
g21
g23
sg26
Vbin/boost_adaptbx.segmentation_fault
p1873
sbg0
(g17
g2
Ntp1874
Rp1875
(dp1876
g21
g23
sg26
Vlib/python3.10/site-packages/boost_adaptbx/command_line/segmentation_fault.py
p1877
sbsg0
(g17
g2
Ntp1878
Rp1879
(dp1880
g21
g23
sg26
Vbin/boost_adaptbx.double_overflow
p1881
sbg0
(g17
g2
Ntp1882
Rp1883
(dp1884
g21
g23
sg26
Vlib/python3.10/site-packages/boost_adaptbx/command_line/double_overflow.py
p1885
sbsg0
(g17
g2
Ntp1886
Rp1887
(dp1888
g21
g23
sg26
Vbin/fable.split
p1889
sbg0
(g17
g2
Ntp1890
Rp1891
(dp1892
g21
g23
sg26
Vlib/python3.10/site-packages/fable/command_line/split.py
p1893
sbsg0
(g17
g2
Ntp1894
Rp1895
(dp1896
g21
g23
sg26
Vbin/fable.fem_include_search_paths
p1897
sbg0
(g17
g2
Ntp1898
Rp1899
(dp1900
g21
g23
sg26
Vlib/python3.10/site-packages/fable/command_line/fem_include_search_paths.py
p1901
sbsg0
(g17
g2
Ntp1902
Rp1903
(dp1904
g21
g23
sg26
Vbin/fable.cout
p1905
sbg0
(g17
g2
Ntp1906
Rp1907
(dp1908
g21
g23
sg26
Vlib/python3.10/site-packages/fable/command_line/cout.py
p1909
sbsg0
(g17
g2
Ntp1910
Rp1911
(dp1912
g21
g23
sg26
Vbin/fable.insert_write_at_start_of_each_procedure
p1913
sbg0
(g17
g2
Ntp1914
Rp1915
(dp1916
g21
g23
sg26
Vlib/python3.10/site-packages/fable/command_line/insert_write_at_start_of_each_procedure.py
p1917
sbsg0
(g17
g2
Ntp1918
Rp1919
(dp1920
g21
g23
sg26
Vbin/fable.show_calls
p1921
sbg0
(g17
g2
Ntp1922
Rp1923
(dp1924
g21
g23
sg26
Vlib/python3.10/site-packages/fable/command_line/show_calls.py
p1925
sbsg0
(g17
g2
Ntp1926
Rp1927
(dp1928
g21
g23
sg26
Vbin/fable.read
p1929
sbg0
(g17
g2
Ntp1930
Rp1931
(dp1932
g21
g23
sg26
Vlib/python3.10/site-packages/fable/command_line/read.py
p1933
sbsg0
(g17
g2
Ntp1934
Rp1935
(dp1936
g21
g23
sg26
Vbin/scitbx.show_sizes
p1937
sbg0
(g17
g2
Ntp1938
Rp1939
(dp1940
g21
g23
sg26
Vlib/python3.10/site-packages/scitbx/command_line/show_sizes.py
p1941
sbsg0
(g17
g2
Ntp1942
Rp1943
(dp1944
g21
g23
sg26
Vbin/scitbx.histogram
p1945
sbg0
(g17
g2
Ntp1946
Rp1947
(dp1948
g21
g23
sg26
Vlib/python3.10/site-packages/scitbx/command_line/histogram.py
p1949
sbsg0
(g17
g2
Ntp1950
Rp1951
(dp1952
g21
g23
sg26
Vbin/scitbx.show_exp_times
p1953
sbg0
(g17
g2
Ntp1954
Rp1955
(dp1956
g21
g23
sg26
Vlib/python3.10/site-packages/scitbx/command_line/show_exp_times.py
p1957
sbsg0
(g17
g2
Ntp1958
Rp1959
(dp1960
g21
g23
sg26
Vbin/scitbx.generate_error_h
p1961
sbg0
(g17
g2
Ntp1962
Rp1963
(dp1964
g21
g23
sg26
Vlib/python3.10/site-packages/scitbx/command_line/generate_error_h.py
p1965
sbsg0
(g17
g2
Ntp1966
Rp1967
(dp1968
g21
g23
sg26
Vbin/scitbx.apply_tapenade_hints
p1969
sbg0
(g17
g2
Ntp1970
Rp1971
(dp1972
g21
g23
sg26
Vlib/python3.10/site-packages/scitbx/command_line/apply_tapenade_hints.py
p1973
sbsg0
(g17
g2
Ntp1974
Rp1975
(dp1976
g21
g23
sg26
Vbin/scitbx.unicode_examples
p1977
sbg0
(g17
g2
Ntp1978
Rp1979
(dp1980
g21
g23
sg26
Vlib/python3.10/site-packages/scitbx/command_line/unicode_examples.py
p1981
sbsg0
(g17
g2
Ntp1982
Rp1983
(dp1984
g21
g23
sg26
Vbin/cctbx.data_viewer
p1985
sbg0
(g17
g2
Ntp1986
Rp1987
(dp1988
g21
g23
sg26
Vlib/python3.10/site-packages/crys3d/command_line/hklview.py
p1989
sbsg0
(g17
g2
Ntp1990
Rp1991
(dp1992
g21
g23
sg26
Vbin/crys3d.qttbx.view_structure
p1993
sbg0
(g17
g2
Ntp1994
Rp1995
(dp1996
g21
g23
sg26
Vlib/python3.10/site-packages/crys3d/command_line/qttbx.view_structure.py
p1997
sbsg0
(g17
g2
Ntp1998
Rp1999
(dp2000
g21
g23
sg26
Vbin/cctbx.HKLviewer
p2001
sbg0
(g17
g2
Ntp2002
Rp2003
(dp2004
g21
g23
sg26
Vlib/python3.10/site-packages/crys3d/command_line/HKLviewer.py
p2005
sbsg0
(g17
g2
Ntp2006
Rp2007
(dp2008
g21
g23
sg26
Vbin/phasertng.HKLviewer
p2009
sbg2003
sg0
(g17
g2
Ntp2010
Rp2011
(dp2012
g21
g23
sg26
Vbin/cctbx.multiplicity_viewer
p2013
sbg0
(g17
g2
Ntp2014
Rp2015
(dp2016
g21
g23
sg26
Vlib/python3.10/site-packages/crys3d/command_line/multiplicity_viewer.py
p2017
sbsg0
(g17
g2
Ntp2018
Rp2019
(dp2020
g21
g23
sg26
Vbin/cctbx.visualize_r_factors
p2021
sbg0
(g17
g2
Ntp2022
Rp2023
(dp2024
g21
g23
sg26
Vlib/python3.10/site-packages/crys3d/command_line/visualize_r_factors.py
p2025
sbsg0
(g17
g2
Ntp2026
Rp2027
(dp2028
g21
g23
sg26
Vbin/crys3d.model_viewer
p2029
sbg0
(g17
g2
Ntp2030
Rp2031
(dp2032
g21
g23
sg26
Vlib/python3.10/site-packages/crys3d/command_line/model_viewer.py
p2033
sbsg0
(g17
g2
Ntp2034
Rp2035
(dp2036
g21
g23
sg26
Vbin/cctbx.make_install_HKLviewer_ChimeraX
p2037
sbg0
(g17
g2
Ntp2038
Rp2039
(dp2040
g21
g23
sg26
Vlib/python3.10/site-packages/crys3d/command_line/make_install_HKLviewer_ChimeraX.py
p2041
sbsg0
(g17
g2
Ntp2042
Rp2043
(dp2044
g21
g23
sg26
Vbin/cctbx.HKLinfo
p2045
sbg0
(g17
g2
Ntp2046
Rp2047
(dp2048
g21
g23
sg26
Vlib/python3.10/site-packages/crys3d/command_line/HKLinfo.py
p2049
sbsg0
(g17
g2
Ntp2050
Rp2051
(dp2052
g21
g23
sg26
Vbin/cctbx.space_group_info
p2053
sbg0
(g17
g2
Ntp2054
Rp2055
(dp2056
g21
g23
sg26
Vlib/python3.10/site-packages/cctbx/command_line/space_group_info.py
p2057
sbsg0
(g17
g2
Ntp2058
Rp2059
(dp2060
g21
g23
sg26
Vbin/samosa.join
p2061
sbg0
(g17
g2
Ntp2062
Rp2063
(dp2064
g21
g23
sg26
Vlib/python3.10/site-packages/cctbx/command_line/samosa_join.py
p2065
sbsg0
(g17
g2
Ntp2066
Rp2067
(dp2068
g21
g23
sg26
Vbin/cctbx_regression.test_nightly
p2069
sbg0
(g17
g2
Ntp2070
Rp2071
(dp2072
g21
g23
sg26
Vlib/python3.10/site-packages/cctbx/command_line/cctbx_test_nightly.py
p2073
sbsg0
(g17
g2
Ntp2074
Rp2075
(dp2076
g21
g23
sg26
Vbin/cctbx.precession_view
p2077
sbg0
(g17
g2
Ntp2078
Rp2079
(dp2080
g21
g23
sg26
Vlib/python3.10/site-packages/cctbx/command_line/precession_view.py
p2081
sbsg0
(g17
g2
Ntp2082
Rp2083
(dp2084
g21
g23
sg26
Vbin/cctbx.eltbx.show_fp_fdp
p2085
sbg0
(g17
g2
Ntp2086
Rp2087
(dp2088
g21
g23
sg26
Vlib/python3.10/site-packages/cctbx/command_line/eltbx.show_fp_fdp.py
p2089
sbsg0
(g17
g2
Ntp2090
Rp2091
(dp2092
g21
g23
sg26
Vbin/cctbx.wavelength_units
p2093
sbg0
(g17
g2
Ntp2094
Rp2095
(dp2096
g21
g23
sg26
Vlib/python3.10/site-packages/cctbx/command_line/wavelength_units.py
p2097
sbsg0
(g17
g2
Ntp2098
Rp2099
(dp2100
g21
g23
sg26
Vbin/cctbx.version
p2101
sbg0
(g17
g2
Ntp2102
Rp2103
(dp2104
g21
g23
sg26
Vlib/python3.10/site-packages/cctbx/command_line/version.py
p2105
sbsg0
(g17
g2
Ntp2106
Rp2107
(dp2108
g21
g23
sg26
Vbin/cctbx.subgroups
p2109
sbg0
(g17
g2
Ntp2110
Rp2111
(dp2112
g21
g23
sg26
Vlib/python3.10/site-packages/cctbx/command_line/subgroups.py
p2113
sbsg0
(g17
g2
Ntp2114
Rp2115
(dp2116
g21
g23
sg26
Vbin/cctbx.cod_select_and_pickle
p2117
sbg0
(g17
g2
Ntp2118
Rp2119
(dp2120
g21
g23
sg26
Vlib/python3.10/site-packages/cctbx/command_line/cod_select_and_pickle.py
p2121
sbsg0
(g17
g2
Ntp2122
Rp2123
(dp2124
g21
g23
sg26
Vbin/cctbx.structure_factor_timings
p2125
sbg0
(g17
g2
Ntp2126
Rp2127
(dp2128
g21
g23
sg26
Vlib/python3.10/site-packages/cctbx/command_line/structure_factor_timings.py
p2129
sbsg0
(g17
g2
Ntp2130
Rp2131
(dp2132
g21
g23
sg26
Vbin/cctbx.brehm_diederichs
p2133
sbg0
(g17
g2
Ntp2134
Rp2135
(dp2136
g21
g23
sg26
Vlib/python3.10/site-packages/cctbx/command_line/brehm_diederichs.py
p2137
sbsg0
(g17
g2
Ntp2138
Rp2139
(dp2140
g21
g23
sg26
Vbin/samosa.scale
p2141
sbg0
(g17
g2
Ntp2142
Rp2143
(dp2144
g21
g23
sg26
Vlib/python3.10/site-packages/cctbx/command_line/samosa_scale.py
p2145
sbsg0
(g17
g2
Ntp2146
Rp2147
(dp2148
g21
g23
sg26
Vbin/cctbx.euclidean_model_matching
p2149
sbg0
(g17
g2
Ntp2150
Rp2151
(dp2152
g21
g23
sg26
Vlib/python3.10/site-packages/cctbx/command_line/euclidean_model_matching.py
p2153
sbsg0
(g17
g2
Ntp2154
Rp2155
(dp2156
g21
g23
sg26
Vbin/mmtbx.development.qscore
p2157
sbg0
(g17
g2
Ntp2158
Rp2159
(dp2160
g21
g23
sg26
Vlib/python3.10/site-packages/cctbx/command_line/qscore.py
p2161
sbsg0
(g17
g2
Ntp2162
Rp2163
(dp2164
g21
g23
sg26
Vbin/cctbx.web.install
p2165
sbg0
(g17
g2
Ntp2166
Rp2167
(dp2168
g21
g23
sg26
Vlib/python3.10/site-packages/cctbx/command_line/web.install.csh
p2169
sbsg0
(g17
g2
Ntp2170
Rp2171
(dp2172
g21
g23
sg26
Vbin/smtbx.benchmark_refinement
p2173
sbg0
(g17
g2
Ntp2174
Rp2175
(dp2176
g21
g23
sg26
Vlib/python3.10/site-packages/smtbx/command_line/benchmark_refinement.py
p2177
sbsg0
(g17
g2
Ntp2178
Rp2179
(dp2180
g21
g23
sg26
Vbin/smtbx.absolute_structure
p2181
sbg0
(g17
g2
Ntp2182
Rp2183
(dp2184
g21
g23
sg26
Vlib/python3.10/site-packages/smtbx/command_line/absolute_structure.py
p2185
sbsg0
(g17
g2
Ntp2186
Rp2187
(dp2188
g21
g23
sg26
Vbin/smtbx.anom_refine
p2189
sbg0
(g17
g2
Ntp2190
Rp2191
(dp2192
g21
g23
sg26
Vlib/python3.10/site-packages/smtbx/command_line/anom_refine.py
p2193
sbsg0
(g17
g2
Ntp2194
Rp2195
(dp2196
g21
g23
sg26
Vbin/smtbx.refine
p2197
sbg0
(g17
g2
Ntp2198
Rp2199
(dp2200
g21
g23
sg26
Vlib/python3.10/site-packages/smtbx/command_line/refine.py
p2201
sbsg0
(g17
g2
Ntp2202
Rp2203
(dp2204
g21
g23
sg26
Vbin/smtbx.masks
p2205
sbg0
(g17
g2
Ntp2206
Rp2207
(dp2208
g21
g23
sg26
Vlib/python3.10/site-packages/smtbx/command_line/masks.py
p2209
sbsg0
(g17
g2
Ntp2210
Rp2211
(dp2212
g21
g23
sg26
Vbin/iotbx.mtz.dump
p2213
sbg0
(g17
g2
Ntp2214
Rp2215
(dp2216
g21
g23
sg26
Vlib/python3.10/site-packages/iotbx/command_line/mtz.dump.py
p2217
sbsg0
(g17
g2
Ntp2218
Rp2219
(dp2220
g21
g23
sg26
Vbin/iotbx.reflection_file_editor
p2221
sbg0
(g17
g2
Ntp2222
Rp2223
(dp2224
g21
g23
sg26
Vlib/python3.10/site-packages/iotbx/command_line/reflection_file_editor.py
p2225
sbsg0
(g17
g2
Ntp2226
Rp2227
(dp2228
g21
g23
sg26
Vbin/iotbx.pdb.add_conformations
p2229
sbg0
(g17
g2
Ntp2230
Rp2231
(dp2232
g21
g23
sg26
Vlib/python3.10/site-packages/iotbx/command_line/pdb_add_conformations.py
p2233
sbsg0
(g17
g2
Ntp2234
Rp2235
(dp2236
g21
g23
sg26
Vbin/iotbx.pdb.link_as_geometry_restraints_edits
p2237
sbg0
(g17
g2
Ntp2238
Rp2239
(dp2240
g21
g23
sg26
Vlib/python3.10/site-packages/iotbx/command_line/pdb.link_as_geometry_restraints_edits.py
p2241
sbsg0
(g17
g2
Ntp2242
Rp2243
(dp2244
g21
g23
sg26
Vbin/iotbx.r_free_flags_as_cns
p2245
sbg0
(g17
g2
Ntp2246
Rp2247
(dp2248
g21
g23
sg26
Vlib/python3.10/site-packages/iotbx/command_line/r_free_flags_as_cns.py
p2249
sbsg0
(g17
g2
Ntp2250
Rp2251
(dp2252
g21
g23
sg26
Vbin/iotbx.pdb.print_sequence
p2253
sbg0
(g17
g2
Ntp2254
Rp2255
(dp2256
g21
g23
sg26
Vlib/python3.10/site-packages/iotbx/command_line/pdb.print_sequence.py
p2257
sbsg0
(g17
g2
Ntp2258
Rp2259
(dp2260
g21
g23
sg26
Vbin/iotbx.distance_least_squares
p2261
sbg0
(g17
g2
Ntp2262
Rp2263
(dp2264
g21
g23
sg26
Vlib/python3.10/site-packages/iotbx/command_line/distance_least_squares.py
p2265
sbsg0
(g17
g2
Ntp2266
Rp2267
(dp2268
g21
g23
sg26
Vbin/iotbx.pdb.join_fragment_files
p2269
sbg0
(g17
g2
Ntp2270
Rp2271
(dp2272
g21
g23
sg26
Vlib/python3.10/site-packages/iotbx/command_line/pdb.join_fragment_files.py
p2273
sbsg0
(g17
g2
Ntp2274
Rp2275
(dp2276
g21
g23
sg26
Vbin/iotbx.blast_pdb
p2277
sbg0
(g17
g2
Ntp2278
Rp2279
(dp2280
g21
g23
sg26
Vlib/python3.10/site-packages/iotbx/command_line/blast_pdb.py
p2281
sbsg0
(g17
g2
Ntp2282
Rp2283
(dp2284
g21
g23
sg26
Vbin/labelit.png
p2285
sbg0
(g17
g2
Ntp2286
Rp2287
(dp2288
g21
g23
sg26
Vlib/python3.10/site-packages/iotbx/command_line/detector_image_as_png.py
p2289
sbsg0
(g17
g2
Ntp2290
Rp2291
(dp2292
g21
g23
sg26
Vbin/iotbx.pdb.split_models
p2293
sbg0
(g17
g2
Ntp2294
Rp2295
(dp2296
g21
g23
sg26
Vlib/python3.10/site-packages/iotbx/command_line/pdb_split_models.py
p2297
sbsg0
(g17
g2
Ntp2298
Rp2299
(dp2300
g21
g23
sg26
Vbin/iotbx.pdb.superpose_atoms_by_name
p2301
sbg0
(g17
g2
Ntp2302
Rp2303
(dp2304
g21
g23
sg26
Vlib/python3.10/site-packages/iotbx/command_line/pdb.superpose_atoms_by_name.py
p2305
sbsg0
(g17
g2
Ntp2306
Rp2307
(dp2308
g21
g23
sg26
Vbin/cctbx.patterson_map
p2309
sbg0
(g17
g2
Ntp2310
Rp2311
(dp2312
g21
g23
sg26
Vlib/python3.10/site-packages/iotbx/command_line/patterson_map.py
p2313
sbsg0
(g17
g2
Ntp2314
Rp2315
(dp2316
g21
g23
sg26
Vbin/iotbx.crystal_symmetry_from_any
p2317
sbg0
(g17
g2
Ntp2318
Rp2319
(dp2320
g21
g23
sg26
Vlib/python3.10/site-packages/iotbx/command_line/crystal_symmetry_from_any.py
p2321
sbsg0
(g17
g2
Ntp2322
Rp2323
(dp2324
g21
g23
sg26
Vbin/iotbx.poscar_as_xray_structure
p2325
sbg0
(g17
g2
Ntp2326
Rp2327
(dp2328
g21
g23
sg26
Vlib/python3.10/site-packages/iotbx/command_line/poscar_as_xray_structure.py
p2329
sbsg0
(g17
g2
Ntp2330
Rp2331
(dp2332
g21
g23
sg26
Vbin/iotbx.r_free_flags_completion_simple
p2333
sbg0
(g17
g2
Ntp2334
Rp2335
(dp2336
g21
g23
sg26
Vlib/python3.10/site-packages/iotbx/command_line/r_free_flags_completion_simple.py
p2337
sbsg0
(g17
g2
Ntp2338
Rp2339
(dp2340
g21
g23
sg26
Vbin/iotbx.pdb_labels_diff
p2341
sbg0
(g17
g2
Ntp2342
Rp2343
(dp2344
g21
g23
sg26
Vlib/python3.10/site-packages/iotbx/command_line/pdb_labels_diff.py
p2345
sbsg0
(g17
g2
Ntp2346
Rp2347
(dp2348
g21
g23
sg26
Vbin/iotbx.export_scalepack_unmerged
p2349
sbg0
(g17
g2
Ntp2350
Rp2351
(dp2352
g21
g23
sg26
Vlib/python3.10/site-packages/iotbx/command_line/export_scalepack_unmerged.py
p2353
sbsg0
(g17
g2
Ntp2354
Rp2355
(dp2356
g21
g23
sg26
Vbin/iotbx.pdb_remediator
p2357
sbg0
(g17
g2
Ntp2358
Rp2359
(dp2360
g21
g23
sg26
Vlib/python3.10/site-packages/iotbx/command_line/pdb_remediator.py
p2361
sbsg0
(g17
g2
Ntp2362
Rp2363
(dp2364
g21
g23
sg26
Vbin/iotbx.dano_as_amplitudes
p2365
sbg0
(g17
g2
Ntp2366
Rp2367
(dp2368
g21
g23
sg26
Vlib/python3.10/site-packages/iotbx/command_line/dano_as_amplitudes.py
p2369
sbsg0
(g17
g2
Ntp2370
Rp2371
(dp2372
g21
g23
sg26
Vbin/iotbx.dtrek.to_cns
p2373
sbg0
(g17
g2
Ntp2374
Rp2375
(dp2376
g21
g23
sg26
Vlib/python3.10/site-packages/iotbx/command_line/dtrek.to_cns.py
p2377
sbsg0
(g17
g2
Ntp2378
Rp2379
(dp2380
g21
g23
sg26
Vbin/iotbx.build_phil_cache
p2381
sbg0
(g17
g2
Ntp2382
Rp2383
(dp2384
g21
g23
sg26
Vlib/python3.10/site-packages/iotbx/command_line/build_phil_cache.py
p2385
sbsg0
(g17
g2
Ntp2386
Rp2387
(dp2388
g21
g23
sg26
Vbin/iotbx.cns.sdb_reader
p2389
sbg0
(g17
g2
Ntp2390
Rp2391
(dp2392
g21
g23
sg26
Vlib/python3.10/site-packages/iotbx/command_line/cns.sdb_reader.py
p2393
sbsg0
(g17
g2
Ntp2394
Rp2395
(dp2396
g21
g23
sg26
Vbin/iotbx.pdb.show_connectivity
p2397
sbg0
(g17
g2
Ntp2398
Rp2399
(dp2400
g21
g23
sg26
Vlib/python3.10/site-packages/iotbx/command_line/pdb_show_connectivity.py
p2401
sbsg0
(g17
g2
Ntp2402
Rp2403
(dp2404
g21
g23
sg26
Vbin/iotbx.pdb.get_citation
p2405
sbg0
(g17
g2
Ntp2406
Rp2407
(dp2408
g21
g23
sg26
Vlib/python3.10/site-packages/iotbx/command_line/pdb_get_citation.py
p2409
sbsg0
(g17
g2
Ntp2410
Rp2411
(dp2412
g21
g23
sg26
Vbin/iotbx.phil
p2413
sbg0
(g17
g2
Ntp2414
Rp2415
(dp2416
g21
g23
sg26
Vlib/python3.10/site-packages/iotbx/command_line/phil.py
p2417
sbsg0
(g17
g2
Ntp2418
Rp2419
(dp2420
g21
g23
sg26
Vbin/iotbx.xplor.map.show_summary
p2421
sbg0
(g17
g2
Ntp2422
Rp2423
(dp2424
g21
g23
sg26
Vlib/python3.10/site-packages/iotbx/command_line/xplor.map.show_summary.py
p2425
sbsg0
(g17
g2
Ntp2426
Rp2427
(dp2428
g21
g23
sg26
Vbin/iotbx.unique_with_biomt
p2429
sbg0
(g17
g2
Ntp2430
Rp2431
(dp2432
g21
g23
sg26
Vlib/python3.10/site-packages/iotbx/command_line/unique_with_biomt.py
p2433
sbsg0
(g17
g2
Ntp2434
Rp2435
(dp2436
g21
g23
sg26
Vbin/iotbx.reflection_file_reader
p2437
sbg0
(g17
g2
Ntp2438
Rp2439
(dp2440
g21
g23
sg26
Vlib/python3.10/site-packages/iotbx/command_line/reflection_file_reader.py
p2441
sbsg0
(g17
g2
Ntp2442
Rp2443
(dp2444
g21
g23
sg26
Vbin/iotbx.cif.as_miller_arrays
p2445
sbg0
(g17
g2
Ntp2446
Rp2447
(dp2448
g21
g23
sg26
Vlib/python3.10/site-packages/iotbx/command_line/cif.as_miller_arrays.py
p2449
sbsg0
(g17
g2
Ntp2450
Rp2451
(dp2452
g21
g23
sg26
Vbin/iotbx.pdb.as_xray_structure
p2453
sbg0
(g17
g2
Ntp2454
Rp2455
(dp2456
g21
g23
sg26
Vlib/python3.10/site-packages/iotbx/command_line/pdb.as_xray_structure.py
p2457
sbsg0
(g17
g2
Ntp2458
Rp2459
(dp2460
g21
g23
sg26
Vbin/iotbx.reflection_file_converter
p2461
sbg0
(g17
g2
Ntp2462
Rp2463
(dp2464
g21
g23
sg26
Vlib/python3.10/site-packages/iotbx/command_line/reflection_file_converter.py
p2465
sbsg0
(g17
g2
Ntp2466
Rp2467
(dp2468
g21
g23
sg26
Vbin/iotbx.cif_as_pdb
p2469
sbg0
(g17
g2
Ntp2470
Rp2471
(dp2472
g21
g23
sg26
Vlib/python3.10/site-packages/iotbx/command_line/cif_as_pdb.py
p2473
sbsg0
(g17
g2
Ntp2474
Rp2475
(dp2476
g21
g23
sg26
Vbin/iotbx.pdb.box_around_molecule
p2477
sbg0
(g17
g2
Ntp2478
Rp2479
(dp2480
g21
g23
sg26
Vlib/python3.10/site-packages/iotbx/command_line/pdb.box_around_molecule.py
p2481
sbsg0
(g17
g2
Ntp2482
Rp2483
(dp2484
g21
g23
sg26
Vbin/cctbx.show_systematic_absences
p2485
sbg0
(g17
g2
Ntp2486
Rp2487
(dp2488
g21
g23
sg26
Vlib/python3.10/site-packages/iotbx/command_line/show_systematic_absences.py
p2489
sbsg0
(g17
g2
Ntp2490
Rp2491
(dp2492
g21
g23
sg26
Vbin/iotbx.cns.reflection_reader
p2493
sbg0
(g17
g2
Ntp2494
Rp2495
(dp2496
g21
g23
sg26
Vlib/python3.10/site-packages/iotbx/command_line/cns.reflection_reader.py
p2497
sbsg0
(g17
g2
Ntp2498
Rp2499
(dp2500
g21
g23
sg26
Vbin/iotbx.pdb_as_fasta
p2501
sbg0
(g17
g2
Ntp2502
Rp2503
(dp2504
g21
g23
sg26
Vlib/python3.10/site-packages/iotbx/command_line/pdb_as_fasta.py
p2505
sbsg0
(g17
g2
Ntp2506
Rp2507
(dp2508
g21
g23
sg26
Vbin/iotbx.cif.as_xray_structure
p2509
sbg0
(g17
g2
Ntp2510
Rp2511
(dp2512
g21
g23
sg26
Vlib/python3.10/site-packages/iotbx/command_line/cif.as_xray_structure.py
p2513
sbsg0
(g17
g2
Ntp2514
Rp2515
(dp2516
g21
g23
sg26
Vbin/iotbx.split_data_cif
p2517
sbg0
(g17
g2
Ntp2518
Rp2519
(dp2520
g21
g23
sg26
Vlib/python3.10/site-packages/iotbx/command_line/split_data_cif.py
p2521
sbsg0
(g17
g2
Ntp2522
Rp2523
(dp2524
g21
g23
sg26
Vbin/iotbx.simple_map_coefficients
p2525
sbg0
(g17
g2
Ntp2526
Rp2527
(dp2528
g21
g23
sg26
Vlib/python3.10/site-packages/iotbx/command_line/simple_map_coefficients.py
p2529
sbsg0
(g17
g2
Ntp2530
Rp2531
(dp2532
g21
g23
sg26
Vbin/iotbx.french_wilson
p2533
sbg0
(g17
g2
Ntp2534
Rp2535
(dp2536
g21
g23
sg26
Vlib/python3.10/site-packages/iotbx/command_line/french_wilson.py
p2537
sbsg0
(g17
g2
Ntp2538
Rp2539
(dp2540
g21
g23
sg26
Vbin/iotbx.pdb.sort_atoms
p2541
sbg0
(g17
g2
Ntp2542
Rp2543
(dp2544
g21
g23
sg26
Vlib/python3.10/site-packages/iotbx/command_line/sort_atoms.py
p2545
sbsg0
(g17
g2
Ntp2546
Rp2547
(dp2548
g21
g23
sg26
Vbin/iotbx.get_pubmed_citation
p2549
sbg0
(g17
g2
Ntp2550
Rp2551
(dp2552
g21
g23
sg26
Vlib/python3.10/site-packages/iotbx/command_line/get_pubmed_citation.py
p2553
sbsg0
(g17
g2
Ntp2554
Rp2555
(dp2556
g21
g23
sg26
Vbin/iotbx.lattice_symmetry
p2557
sbg0
(g17
g2
Ntp2558
Rp2559
(dp2560
g21
g23
sg26
Vlib/python3.10/site-packages/iotbx/command_line/lattice_symmetry.py
p2561
sbsg0
(g17
g2
Ntp2562
Rp2563
(dp2564
g21
g23
sg26
Vbin/iotbx.shelx.as_xray_structure
p2565
sbg0
(g17
g2
Ntp2566
Rp2567
(dp2568
g21
g23
sg26
Vlib/python3.10/site-packages/iotbx/command_line/shelx.as_xray_structure.py
p2569
sbsg0
(g17
g2
Ntp2570
Rp2571
(dp2572
g21
g23
sg26
Vbin/iotbx.cbf_read
p2573
sbg0
(g17
g2
Ntp2574
Rp2575
(dp2576
g21
g23
sg26
Vlib/python3.10/site-packages/iotbx/command_line/cbf_read.py
p2577
sbsg0
(g17
g2
Ntp2578
Rp2579
(dp2580
g21
g23
sg26
Vbin/iotbx.pdb.insert_scale_records
p2581
sbg0
(g17
g2
Ntp2582
Rp2583
(dp2584
g21
g23
sg26
Vlib/python3.10/site-packages/iotbx/command_line/pdb.insert_scale_records.py
p2585
sbsg0
(g17
g2
Ntp2586
Rp2587
(dp2588
g21
g23
sg26
Vbin/iotbx.shelx.dump_as_python
p2589
sbg0
(g17
g2
Ntp2590
Rp2591
(dp2592
g21
g23
sg26
Vlib/python3.10/site-packages/iotbx/command_line/shelx.dump_as_python.py
p2593
sbsg0
(g17
g2
Ntp2594
Rp2595
(dp2596
g21
g23
sg26
Vbin/iotbx.merging_statistics
p2597
sbg0
(g17
g2
Ntp2598
Rp2599
(dp2600
g21
g23
sg26
Vlib/python3.10/site-packages/iotbx/command_line/merging_statistics.py
p2601
sbsg0
(g17
g2
Ntp2602
Rp2603
(dp2604
g21
g23
sg26
Vbin/iotbx.pdb.superpose_centers_of_mass
p2605
sbg0
(g17
g2
Ntp2606
Rp2607
(dp2608
g21
g23
sg26
Vlib/python3.10/site-packages/iotbx/command_line/pdb.superpose_centers_of_mass.py
p2609
sbsg0
(g17
g2
Ntp2610
Rp2611
(dp2612
g21
g23
sg26
Vbin/iotbx.pdb_labels_comparison
p2613
sbg0
(g17
g2
Ntp2614
Rp2615
(dp2616
g21
g23
sg26
Vlib/python3.10/site-packages/iotbx/command_line/pdb_labels_comparison.py
p2617
sbsg0
(g17
g2
Ntp2618
Rp2619
(dp2620
g21
g23
sg26
Vbin/iotbx.shelx.as_cif
p2621
sbg0
(g17
g2
Ntp2622
Rp2623
(dp2624
g21
g23
sg26
Vlib/python3.10/site-packages/iotbx/command_line/shelx.as_cif.py
p2625
sbsg0
(g17
g2
Ntp2626
Rp2627
(dp2628
g21
g23
sg26
Vbin/iotbx.r_free_flags_accumulation
p2629
sbg0
(g17
g2
Ntp2630
Rp2631
(dp2632
g21
g23
sg26
Vlib/python3.10/site-packages/iotbx/command_line/r_free_flags_accumulation.py
p2633
sbsg0
(g17
g2
Ntp2634
Rp2635
(dp2636
g21
g23
sg26
Vbin/iotbx.emma
p2637
sbg0
(g17
g2
Ntp2638
Rp2639
(dp2640
g21
g23
sg26
Vlib/python3.10/site-packages/iotbx/command_line/emma.py
p2641
sbsg0
(g17
g2
Ntp2642
Rp2643
(dp2644
g21
g23
sg26
Vbin/iotbx.cif.validate
p2645
sbg0
(g17
g2
Ntp2646
Rp2647
(dp2648
g21
g23
sg26
Vlib/python3.10/site-packages/iotbx/command_line/cif.validate.py
p2649
sbsg0
(g17
g2
Ntp2650
Rp2651
(dp2652
g21
g23
sg26
Vbin/iotbx.file_reader
p2653
sbg0
(g17
g2
Ntp2654
Rp2655
(dp2656
g21
g23
sg26
Vlib/python3.10/site-packages/iotbx/command_line/file_reader.py
p2657
sbsg0
(g17
g2
Ntp2658
Rp2659
(dp2660
g21
g23
sg26
Vbin/iotbx.pdb.flip_symmetric_amino_acids
p2661
sbg0
(g17
g2
Ntp2662
Rp2663
(dp2664
g21
g23
sg26
Vlib/python3.10/site-packages/iotbx/command_line/flip_symmetric_amino_acids.py
p2665
sbsg0
(g17
g2
Ntp2666
Rp2667
(dp2668
g21
g23
sg26
Vbin/iotbx.symmetry_search
p2669
sbg0
(g17
g2
Ntp2670
Rp2671
(dp2672
g21
g23
sg26
Vlib/python3.10/site-packages/iotbx/command_line/symmetry_search.py
p2673
sbsg0
(g17
g2
Ntp2674
Rp2675
(dp2676
g21
g23
sg26
Vbin/iotbx.show_distances
p2677
sbg0
(g17
g2
Ntp2678
Rp2679
(dp2680
g21
g23
sg26
Vlib/python3.10/site-packages/iotbx/command_line/show_distances.py
p2681
sbsg0
(g17
g2
Ntp2682
Rp2683
(dp2684
g21
g23
sg26
Vbin/iotbx.cns.transfer_crystal_symmetry
p2685
sbg0
(g17
g2
Ntp2686
Rp2687
(dp2688
g21
g23
sg26
Vlib/python3.10/site-packages/iotbx/command_line/cns.transfer_crystal_symmetry.py
p2689
sbsg0
(g17
g2
Ntp2690
Rp2691
(dp2692
g21
g23
sg26
Vbin/distl.find_active_area
p2693
sbg0
(g17
g2
Ntp2694
Rp2695
(dp2696
g21
g23
sg26
Vlib/python3.10/site-packages/spotfinder/command_line/find_active_area.py
p2697
sbsg0
(g17
g2
Ntp2698
Rp2699
(dp2700
g21
g23
sg26
Vbin/distl.signal_strength
p2701
sbg0
(g17
g2
Ntp2702
Rp2703
(dp2704
g21
g23
sg26
Vlib/python3.10/site-packages/spotfinder/command_line/signal_strength.py
p2705
sbsg0
(g17
g2
Ntp2706
Rp2707
(dp2708
g21
g23
sg26
Vbin/distl.thin_client
p2709
sbg0
(g17
g2
Ntp2710
Rp2711
(dp2712
g21
g23
sg26
Vlib/python3.10/site-packages/spotfinder/command_line/thin_client.py
p2713
sbsg0
(g17
g2
Ntp2714
Rp2715
(dp2716
g21
g23
sg26
Vbin/distl.mp_spotfinder_server_read_file
p2717
sbg0
(g17
g2
Ntp2718
Rp2719
(dp2720
g21
g23
sg26
Vlib/python3.10/site-packages/spotfinder/command_line/mp_spotfinder_server_read_file.py
p2721
sbsg0
(g17
g2
Ntp2722
Rp2723
(dp2724
g21
g23
sg26
Vbin/distl.sweep_strength
p2725
sbg0
(g17
g2
Ntp2726
Rp2727
(dp2728
g21
g23
sg26
Vlib/python3.10/site-packages/spotfinder/command_line/sweep_strength.py
p2729
sbsg0
(g17
g2
Ntp2730
Rp2731
(dp2732
g21
g23
sg26
Vbin/distl.image_viewer
p2733
sbg0
(g17
g2
Ntp2734
Rp2735
(dp2736
g21
g23
sg26
Vlib/python3.10/site-packages/spotfinder/command_line/image_viewer.py
p2737
sbsg0
(g17
g2
Ntp2738
Rp2739
(dp2740
g21
g23
sg26
Vbin/cctbx.image_viewer
p2741
sbg0
(g17
g2
Ntp2742
Rp2743
(dp2744
g21
g23
sg26
Vlib/python3.10/site-packages/rstbx/command_line/slip_viewer.py
p2745
sbsg0
(g17
g2
Ntp2746
Rp2747
(dp2748
g21
g23
sg26
Vbin/rstbx.simage.explore_completeness
p2749
sbg0
(g17
g2
Ntp2750
Rp2751
(dp2752
g21
g23
sg26
Vlib/python3.10/site-packages/rstbx/command_line/simage.explore_completeness.py
p2753
sbsg0
(g17
g2
Ntp2754
Rp2755
(dp2756
g21
g23
sg26
Vbin/rstbx.simage.solver
p2757
sbg0
(g17
g2
Ntp2758
Rp2759
(dp2760
g21
g23
sg26
Vlib/python3.10/site-packages/rstbx/command_line/simage.solver.py
p2761
sbsg0
(g17
g2
Ntp2762
Rp2763
(dp2764
g21
g23
sg26
Vbin/rstbx.simage.create
p2765
sbg0
(g17
g2
Ntp2766
Rp2767
(dp2768
g21
g23
sg26
Vlib/python3.10/site-packages/rstbx/command_line/simage.create.py
p2769
sbsg0
(g17
g2
Ntp2770
Rp2771
(dp2772
g21
g23
sg26
Vbin/rstbx.simage.wx_display
p2773
sbg0
(g17
g2
Ntp2774
Rp2775
(dp2776
g21
g23
sg26
Vlib/python3.10/site-packages/rstbx/command_line/simage.wx_display.py
p2777
sbsg0
(g17
g2
Ntp2778
Rp2779
(dp2780
g21
g23
sg26
Vbin/rstbx.index
p2781
sbg0
(g17
g2
Ntp2782
Rp2783
(dp2784
g21
g23
sg26
Vlib/python3.10/site-packages/rstbx/command_line/index.py
p2785
sbsg0
(g17
g2
Ntp2786
Rp2787
(dp2788
g21
g23
sg26
Vbin/mmtbx.table_one
p2789
sbg0
(g17
g2
Ntp2790
Rp2791
(dp2792
g21
g23
sg26
Vlib/python3.10/site-packages/mmtbx/command_line/table_one.py
p2793
sbsg0
(g17
g2
Ntp2794
Rp2795
(dp2796
g21
g23
sg26
Vbin/mmtbx.show_r_factors_by_shell
p2797
sbg0
(g17
g2
Ntp2798
Rp2799
(dp2800
g21
g23
sg26
Vlib/python3.10/site-packages/mmtbx/command_line/show_r_factors_by_shell.py
p2801
sbsg0
(g17
g2
Ntp2802
Rp2803
(dp2804
g21
g23
sg26
Vbin/mmtbx.select_best_starting_model
p2805
sbg0
(g17
g2
Ntp2806
Rp2807
(dp2808
g21
g23
sg26
Vlib/python3.10/site-packages/mmtbx/command_line/select_best_starting_model.py
p2809
sbsg0
(g17
g2
Ntp2810
Rp2811
(dp2812
g21
g23
sg26
Vbin/mmtbx.rebuild_rotarama_cache
p2813
sbg0
(g17
g2
Ntp2814
Rp2815
(dp2816
g21
g23
sg26
Vlib/python3.10/site-packages/mmtbx/command_line/rebuild_rotarama_cache.py
p2817
sbsg0
(g17
g2
Ntp2818
Rp2819
(dp2820
g21
g23
sg26
Vbin/molprobity.undowser_validation
p2821
sbg0
(g17
g2
Ntp2822
Rp2823
(dp2824
g21
g23
sg26
Vlib/python3.10/site-packages/mmtbx/command_line/undowser.py
p2825
sbsg0
(g17
g2
Ntp2826
Rp2827
(dp2828
g21
g23
sg26
Vbin/iotbx.cif_as_mtz
p2829
sbg0
(g17
g2
Ntp2830
Rp2831
(dp2832
g21
g23
sg26
Vlib/python3.10/site-packages/mmtbx/command_line/cif_as_mtz.py
p2833
sbsg0
(g17
g2
Ntp2834
Rp2835
(dp2836
g21
g23
sg26
Vbin/mmtbx.undowser2_validation
p2837
sbg0
(g17
g2
Ntp2838
Rp2839
(dp2840
g21
g23
sg26
Vlib/python3.10/site-packages/mmtbx/command_line/undowser2.py
p2841
sbsg0
(g17
g2
Ntp2842
Rp2843
(dp2844
g21
g23
sg26
Vbin/molprobity.undowser2_validation
p2845
sbg2839
sg0
(g17
g2
Ntp2846
Rp2847
(dp2848
g21
g23
sg26
Vbin/mmtbx.super
p2849
sbg0
(g17
g2
Ntp2850
Rp2851
(dp2852
g21
g23
sg26
Vlib/python3.10/site-packages/mmtbx/command_line/super.py
p2853
sbsg0
(g17
g2
Ntp2854
Rp2855
(dp2856
g21
g23
sg26
Vbin/mmtbx.prune_model
p2857
sbg0
(g17
g2
Ntp2858
Rp2859
(dp2860
g21
g23
sg26
Vlib/python3.10/site-packages/mmtbx/command_line/prune_model.py
p2861
sbsg0
(g17
g2
Ntp2862
Rp2863
(dp2864
g21
g23
sg26
Vbin/mmtbx.reduce2
p2865
sbg0
(g17
g2
Ntp2866
Rp2867
(dp2868
g21
g23
sg26
Vlib/python3.10/site-packages/mmtbx/command_line/reduce2.py
p2869
sbsg0
(g17
g2
Ntp2870
Rp2871
(dp2872
g21
g23
sg26
Vbin/mmtbx.mon_lib_cif_triage
p2873
sbg0
(g17
g2
Ntp2874
Rp2875
(dp2876
g21
g23
sg26
Vlib/python3.10/site-packages/mmtbx/command_line/mon_lib_cif_triage.py
p2877
sbsg0
(g17
g2
Ntp2878
Rp2879
(dp2880
g21
g23
sg26
Vbin/molprobity.rna_validate_bonds
p2881
sbg0
(g17
g2
Ntp2882
Rp2883
(dp2884
g21
g23
sg26
Vlib/python3.10/site-packages/mmtbx/command_line/rna_validate_bonds.py
p2885
sbsg0
(g17
g2
Ntp2886
Rp2887
(dp2888
g21
g23
sg26
Vbin/mmtbx.refine_anomalous_substructure
p2889
sbg0
(g17
g2
Ntp2890
Rp2891
(dp2892
g21
g23
sg26
Vlib/python3.10/site-packages/mmtbx/command_line/refine_anomalous_substructure.py
p2893
sbsg0
(g17
g2
Ntp2894
Rp2895
(dp2896
g21
g23
sg26
Vbin/mmtbx.development.aev
p2897
sbg0
(g17
g2
Ntp2898
Rp2899
(dp2900
g21
g23
sg26
Vlib/python3.10/site-packages/mmtbx/command_line/development_aev.py
p2901
sbsg0
(g17
g2
Ntp2902
Rp2903
(dp2904
g21
g23
sg26
Vbin/molprobity.clashscore2
p2905
sbg0
(g17
g2
Ntp2906
Rp2907
(dp2908
g21
g23
sg26
Vlib/python3.10/site-packages/mmtbx/command_line/clashscore2.py
p2909
sbsg0
(g17
g2
Ntp2910
Rp2911
(dp2912
g21
g23
sg26
Vbin/mmtbx.clashscore2
p2913
sbg2907
sg0
(g17
g2
Ntp2914
Rp2915
(dp2916
g21
g23
sg26
Vbin/mmtbx.model_vs_data
p2917
sbg0
(g17
g2
Ntp2918
Rp2919
(dp2920
g21
g23
sg26
Vlib/python3.10/site-packages/mmtbx/command_line/model_vs_data.py
p2921
sbsg0
(g17
g2
Ntp2922
Rp2923
(dp2924
g21
g23
sg26
Vbin/molprobity.clashscore
p2925
sbg0
(g17
g2
Ntp2926
Rp2927
(dp2928
g21
g23
sg26
Vlib/python3.10/site-packages/mmtbx/command_line/clashscore.py
p2929
sbsg0
(g17
g2
Ntp2930
Rp2931
(dp2932
g21
g23
sg26
Vbin/mmtbx.TAAM_minus_IAM
p2933
sbg0
(g17
g2
Ntp2934
Rp2935
(dp2936
g21
g23
sg26
Vlib/python3.10/site-packages/mmtbx/command_line/taam_minus_iam.py
p2937
sbsg0
(g17
g2
Ntp2938
Rp2939
(dp2940
g21
g23
sg26
Vbin/mmtbx.development.validate_ligands
p2941
sbg0
(g17
g2
Ntp2942
Rp2943
(dp2944
g21
g23
sg26
Vlib/python3.10/site-packages/mmtbx/command_line/validate_ligands.py
p2945
sbsg0
(g17
g2
Ntp2946
Rp2947
(dp2948
g21
g23
sg26
Vbin/mmtbx.density_modification
p2949
sbg0
(g17
g2
Ntp2950
Rp2951
(dp2952
g21
g23
sg26
Vlib/python3.10/site-packages/mmtbx/command_line/density_modification.py
p2953
sbsg0
(g17
g2
Ntp2954
Rp2955
(dp2956
g21
g23
sg26
Vbin/mmtbx.find_residue_in_pdb
p2957
sbg0
(g17
g2
Ntp2958
Rp2959
(dp2960
g21
g23
sg26
Vlib/python3.10/site-packages/mmtbx/command_line/find_residue_in_pdb.py
p2961
sbsg0
(g17
g2
Ntp2962
Rp2963
(dp2964
g21
g23
sg26
Vbin/mmtbx.pdb_interpretation
p2965
sbg0
(g17
g2
Ntp2966
Rp2967
(dp2968
g21
g23
sg26
Vlib/python3.10/site-packages/mmtbx/command_line/pdb_interpretation.py
p2969
sbsg0
(g17
g2
Ntp2970
Rp2971
(dp2972
g21
g23
sg26
Vbin/mmtbx.ribbons
p2973
sbg0
(g17
g2
Ntp2974
Rp2975
(dp2976
g21
g23
sg26
Vlib/python3.10/site-packages/mmtbx/command_line/ribbons.py
p2977
sbsg0
(g17
g2
Ntp2978
Rp2979
(dp2980
g21
g23
sg26
Vbin/mmtbx.mp_geo
p2981
sbg0
(g17
g2
Ntp2982
Rp2983
(dp2984
g21
g23
sg26
Vlib/python3.10/site-packages/mmtbx/command_line/mp_geo.py
p2985
sbsg0
(g17
g2
Ntp2986
Rp2987
(dp2988
g21
g23
sg26
Vbin/molprobity.omegalyze
p2989
sbg0
(g17
g2
Ntp2990
Rp2991
(dp2992
g21
g23
sg26
Vlib/python3.10/site-packages/mmtbx/command_line/omegalyze.py
p2993
sbsg0
(g17
g2
Ntp2994
Rp2995
(dp2996
g21
g23
sg26
Vbin/mmtbx.distance_difference
p2997
sbg0
(g17
g2
Ntp2998
Rp2999
(dp3000
g21
g23
sg26
Vlib/python3.10/site-packages/mmtbx/command_line/distance_difference.py
p3001
sbsg0
(g17
g2
Ntp3002
Rp3003
(dp3004
g21
g23
sg26
Vbin/molprobity.suitename
p3005
sbg0
(g17
g2
Ntp3006
Rp3007
(dp3008
g21
g23
sg26
Vlib/python3.10/site-packages/mmtbx/command_line/suitename.py
p3009
sbsg0
(g17
g2
Ntp3010
Rp3011
(dp3012
g21
g23
sg26
Vbin/cctbx.suitename
p3013
sbg3007
sg0
(g17
g2
Ntp3014
Rp3015
(dp3016
g21
g23
sg26
Vbin/molprobity.cbetadev
p3017
sbg0
(g17
g2
Ntp3018
Rp3019
(dp3020
g21
g23
sg26
Vlib/python3.10/site-packages/mmtbx/command_line/cbetadev.py
p3021
sbsg0
(g17
g2
Ntp3022
Rp3023
(dp3024
g21
g23
sg26
Vbin/mmtbx.rebuild_cablam_cache
p3025
sbg0
(g17
g2
Ntp3026
Rp3027
(dp3028
g21
g23
sg26
Vlib/python3.10/site-packages/mmtbx/command_line/rebuild_cablam_cache.py
p3029
sbsg0
(g17
g2
Ntp3030
Rp3031
(dp3032
g21
g23
sg26
Vbin/mmtbx.arginine_geometry
p3033
sbg0
(g17
g2
Ntp3034
Rp3035
(dp3036
g21
g23
sg26
Vlib/python3.10/site-packages/mmtbx/command_line/arginine_geometry.py
p3037
sbsg0
(g17
g2
Ntp3038
Rp3039
(dp3040
g21
g23
sg26
Vbin/mmtbx.ringer
p3041
sbg0
(g17
g2
Ntp3042
Rp3043
(dp3044
g21
g23
sg26
Vlib/python3.10/site-packages/mmtbx/command_line/ringer.py
p3045
sbsg0
(g17
g2
Ntp3046
Rp3047
(dp3048
g21
g23
sg26
Vbin/mmtbx.process_predicted_model
p3049
sbg0
(g17
g2
Ntp3050
Rp3051
(dp3052
g21
g23
sg26
Vlib/python3.10/site-packages/mmtbx/command_line/process_predicted_model.py
p3053
sbsg0
(g17
g2
Ntp3054
Rp3055
(dp3056
g21
g23
sg26
Vbin/molprobity.suitename_old
p3057
sbg0
(g17
g2
Ntp3058
Rp3059
(dp3060
g21
g23
sg26
Vlib/python3.10/site-packages/mmtbx/command_line/suitename_old.py
p3061
sbsg0
(g17
g2
Ntp3062
Rp3063
(dp3064
g21
g23
sg26
Vbin/cctbx.suitename_old
p3065
sbg3059
sg0
(g17
g2
Ntp3066
Rp3067
(dp3068
g21
g23
sg26
Vbin/mmtbx.plan_sad_experiment
p3069
sbg0
(g17
g2
Ntp3070
Rp3071
(dp3072
g21
g23
sg26
Vlib/python3.10/site-packages/mmtbx/command_line/plan_sad_experiment.py
p3073
sbsg0
(g17
g2
Ntp3074
Rp3075
(dp3076
g21
g23
sg26
Vbin/mmtbx.massage_data
p3077
sbg0
(g17
g2
Ntp3078
Rp3079
(dp3080
g21
g23
sg26
Vlib/python3.10/site-packages/mmtbx/command_line/massage_data.py
p3081
sbsg0
(g17
g2
Ntp3082
Rp3083
(dp3084
g21
g23
sg26
Vbin/molprobity.probescore_ligand
p3085
sbg0
(g17
g2
Ntp3086
Rp3087
(dp3088
g21
g23
sg26
Vlib/python3.10/site-packages/mmtbx/command_line/probescore_ligand.py
p3089
sbsg0
(g17
g2
Ntp3090
Rp3091
(dp3092
g21
g23
sg26
Vbin/molprobity.rna_validate
p3093
sbg0
(g17
g2
Ntp3094
Rp3095
(dp3096
g21
g23
sg26
Vlib/python3.10/site-packages/mmtbx/command_line/rna_validate.py
p3097
sbsg0
(g17
g2
Ntp3098
Rp3099
(dp3100
g21
g23
sg26
Vbin/mmtbx.reduce_cryoem_resolution
p3101
sbg0
(g17
g2
Ntp3102
Rp3103
(dp3104
g21
g23
sg26
Vlib/python3.10/site-packages/mmtbx/command_line/reduce_cryoem_resolution.py
p3105
sbsg0
(g17
g2
Ntp3106
Rp3107
(dp3108
g21
g23
sg26
Vbin/mmtbx.development.water_b_factors
p3109
sbg0
(g17
g2
Ntp3110
Rp3111
(dp3112
g21
g23
sg26
Vlib/python3.10/site-packages/mmtbx/command_line/water_b_factors.py
p3113
sbsg0
(g17
g2
Ntp3114
Rp3115
(dp3116
g21
g23
sg26
Vbin/mmtbx.altloc_remediate
p3117
sbg0
(g17
g2
Ntp3118
Rp3119
(dp3120
g21
g23
sg26
Vlib/python3.10/site-packages/mmtbx/command_line/altloc_remediate.py
p3121
sbsg0
(g17
g2
Ntp3122
Rp3123
(dp3124
g21
g23
sg26
Vbin/mmtbx.superpose
p3125
sbg0
(g17
g2
Ntp3126
Rp3127
(dp3128
g21
g23
sg26
Vlib/python3.10/site-packages/mmtbx/command_line/superpose.py
p3129
sbsg0
(g17
g2
Ntp3130
Rp3131
(dp3132
g21
g23
sg26
Vbin/molprobity.mp_validate_bonds
p3133
sbg0
(g17
g2
Ntp3134
Rp3135
(dp3136
g21
g23
sg26
Vlib/python3.10/site-packages/mmtbx/command_line/mp_validate_bonds.py
p3137
sbsg0
(g17
g2
Ntp3138
Rp3139
(dp3140
g21
g23
sg26
Vbin/mmtbx.search_pdb_symmetry
p3141
sbg0
(g17
g2
Ntp3142
Rp3143
(dp3144
g21
g23
sg26
Vlib/python3.10/site-packages/mmtbx/command_line/search_pdb_symmetry.py
p3145
sbsg0
(g17
g2
Ntp3146
Rp3147
(dp3148
g21
g23
sg26
Vbin/molprobity.rna_validate_suites
p3149
sbg0
(g17
g2
Ntp3150
Rp3151
(dp3152
g21
g23
sg26
Vlib/python3.10/site-packages/mmtbx/command_line/rna_validate_suites.py
p3153
sbsg0
(g17
g2
Ntp3154
Rp3155
(dp3156
g21
g23
sg26
Vbin/molprobity.cablam
p3157
sbg0
(g17
g2
Ntp3158
Rp3159
(dp3160
g21
g23
sg26
Vlib/python3.10/site-packages/mmtbx/command_line/cablam.py
p3161
sbsg0
(g17
g2
Ntp3162
Rp3163
(dp3164
g21
g23
sg26
Vbin/mmtbx.prepare_pdb_deposition
p3165
sbg0
(g17
g2
Ntp3166
Rp3167
(dp3168
g21
g23
sg26
Vlib/python3.10/site-packages/mmtbx/command_line/prepare_pdb_deposition.py
p3169
sbsg0
(g17
g2
Ntp3170
Rp3171
(dp3172
g21
g23
sg26
Vbin/mmtbx.ss_idealization
p3173
sbg0
(g17
g2
Ntp3174
Rp3175
(dp3176
g21
g23
sg26
Vlib/python3.10/site-packages/mmtbx/command_line/ss_idealization.py
p3177
sbsg0
(g17
g2
Ntp3178
Rp3179
(dp3180
g21
g23
sg26
Vbin/molprobity.kinemage
p3181
sbg0
(g17
g2
Ntp3182
Rp3183
(dp3184
g21
g23
sg26
Vlib/python3.10/site-packages/mmtbx/command_line/kinemage.py
p3185
sbsg0
(g17
g2
Ntp3186
Rp3187
(dp3188
g21
g23
sg26
Vbin/mmtbx.development.ligand_restraints_validation
p3189
sbg0
(g17
g2
Ntp3190
Rp3191
(dp3192
g21
g23
sg26
Vlib/python3.10/site-packages/mmtbx/command_line/ligand_restraints_validation.py
p3193
sbsg0
(g17
g2
Ntp3194
Rp3195
(dp3196
g21
g23
sg26
Vbin/mmtbx.matthews
p3197
sbg0
(g17
g2
Ntp3198
Rp3199
(dp3200
g21
g23
sg26
Vlib/python3.10/site-packages/mmtbx/command_line/matthews.py
p3201
sbsg0
(g17
g2
Ntp3202
Rp3203
(dp3204
g21
g23
sg26
Vbin/molprobity.rna_validate_puckers
p3205
sbg0
(g17
g2
Ntp3206
Rp3207
(dp3208
g21
g23
sg26
Vlib/python3.10/site-packages/mmtbx/command_line/rna_validate_puckers.py
p3209
sbsg0
(g17
g2
Ntp3210
Rp3211
(dp3212
g21
g23
sg26
Vbin/molprobity.ramalyze
p3213
sbg0
(g17
g2
Ntp3214
Rp3215
(dp3216
g21
g23
sg26
Vlib/python3.10/site-packages/mmtbx/command_line/ramalyze.py
p3217
sbsg0
(g17
g2
Ntp3218
Rp3219
(dp3220
g21
g23
sg26
Vbin/mmtbx.apply_ncs_to_ligand
p3221
sbg0
(g17
g2
Ntp3222
Rp3223
(dp3224
g21
g23
sg26
Vlib/python3.10/site-packages/mmtbx/command_line/apply_ncs_to_ligand.py
p3225
sbsg0
(g17
g2
Ntp3226
Rp3227
(dp3228
g21
g23
sg26
Vbin/mmtbx.probe2
p3229
sbg0
(g17
g2
Ntp3230
Rp3231
(dp3232
g21
g23
sg26
Vlib/python3.10/site-packages/mmtbx/command_line/probe2.py
p3233
sbsg0
(g17
g2
Ntp3234
Rp3235
(dp3236
g21
g23
sg26
Vbin/mmtbx.xtriage
p3237
sbg0
(g17
g2
Ntp3238
Rp3239
(dp3240
g21
g23
sg26
Vlib/python3.10/site-packages/mmtbx/command_line/xtriage.py
p3241
sbsg0
(g17
g2
Ntp3242
Rp3243
(dp3244
g21
g23
sg26
Vbin/mmtbx.rigid_bond_test
p3245
sbg0
(g17
g2
Ntp3246
Rp3247
(dp3248
g21
g23
sg26
Vlib/python3.10/site-packages/mmtbx/command_line/rigid_bond_test.py
p3249
sbsg0
(g17
g2
Ntp3250
Rp3251
(dp3252
g21
g23
sg26
Vbin/molprobity.molprobity
p3253
sbg0
(g17
g2
Ntp3254
Rp3255
(dp3256
g21
g23
sg26
Vlib/python3.10/site-packages/mmtbx/command_line/molprobity.py
p3257
sbsg0
(g17
g2
Ntp3258
Rp3259
(dp3260
g21
g23
sg26
Vbin/mmtbx.where_is_that_cif_file
p3261
sbg0
(g17
g2
Ntp3262
Rp3263
(dp3264
g21
g23
sg26
Vlib/python3.10/site-packages/mmtbx/command_line/where_is_that_cif_file.py
p3265
sbsg0
(g17
g2
Ntp3266
Rp3267
(dp3268
g21
g23
sg26
Vbin/mmtbx.development.electrons
p3269
sbg0
(g17
g2
Ntp3270
Rp3271
(dp3272
g21
g23
sg26
Vlib/python3.10/site-packages/mmtbx/command_line/electrons.py
p3273
sbsg0
(g17
g2
Ntp3274
Rp3275
(dp3276
g21
g23
sg26
Vbin/mmtbx.rama_z
p3277
sbg0
(g17
g2
Ntp3278
Rp3279
(dp3280
g21
g23
sg26
Vlib/python3.10/site-packages/mmtbx/command_line/rama_z.py
p3281
sbsg0
(g17
g2
Ntp3282
Rp3283
(dp3284
g21
g23
sg26
Vbin/mmtbx.emringer_score
p3285
sbg0
(g17
g2
Ntp3286
Rp3287
(dp3288
g21
g23
sg26
Vlib/python3.10/site-packages/mmtbx/command_line/emringer_score.py
p3289
sbsg0
(g17
g2
Ntp3290
Rp3291
(dp3292
g21
g23
sg26
Vbin/mmtbx.nonbonded_overlaps
p3293
sbg0
(g17
g2
Ntp3294
Rp3295
(dp3296
g21
g23
sg26
Vlib/python3.10/site-packages/mmtbx/command_line/nonbonded_overlaps.py
p3297
sbsg0
(g17
g2
Ntp3298
Rp3299
(dp3300
g21
g23
sg26
Vbin/mmtbx.find_peaks_holes
p3301
sbg0
(g17
g2
Ntp3302
Rp3303
(dp3304
g21
g23
sg26
Vlib/python3.10/site-packages/mmtbx/command_line/find_peaks_holes.py
p3305
sbsg0
(g17
g2
Ntp3306
Rp3307
(dp3308
g21
g23
sg26
Vbin/mmtbx.holton_geometry_validation
p3309
sbg0
(g17
g2
Ntp3310
Rp3311
(dp3312
g21
g23
sg26
Vlib/python3.10/site-packages/mmtbx/command_line/holton_geometry_validation.py
p3313
sbsg0
(g17
g2
Ntp3314
Rp3315
(dp3316
g21
g23
sg26
Vbin/mmtbx.verify_mon_lib_data
p3317
sbg0
(g17
g2
Ntp3318
Rp3319
(dp3320
g21
g23
sg26
Vlib/python3.10/site-packages/mmtbx/command_line/verify_mon_lib_data.py
p3321
sbsg0
(g17
g2
Ntp3322
Rp3323
(dp3324
g21
g23
sg26
Vbin/mmtbx.quantum_interface
p3325
sbg0
(g17
g2
Ntp3326
Rp3327
(dp3328
g21
g23
sg26
Vlib/python3.10/site-packages/mmtbx/command_line/quantum_interface.py
p3329
sbsg0
(g17
g2
Ntp3330
Rp3331
(dp3332
g21
g23
sg26
Vbin/molprobity.barbed_wire_analysis
p3333
sbg0
(g17
g2
Ntp3334
Rp3335
(dp3336
g21
g23
sg26
Vlib/python3.10/site-packages/mmtbx/command_line/barbed_wire_analysis.py
p3337
sbsg0
(g17
g2
Ntp3338
Rp3339
(dp3340
g21
g23
sg26
Vbin/iotbx.fetch_pdb
p3341
sbg0
(g17
g2
Ntp3342
Rp3343
(dp3344
g21
g23
sg26
Vlib/python3.10/site-packages/mmtbx/command_line/fetch_pdb.py
p3345
sbsg0
(g17
g2
Ntp3346
Rp3347
(dp3348
g21
g23
sg26
Vbin/mmtbx.debugging.hydrogenate
p3349
sbg0
(g17
g2
Ntp3350
Rp3351
(dp3352
g21
g23
sg26
Vlib/python3.10/site-packages/mmtbx/command_line/hydrogenate.py
p3353
sbsg0
(g17
g2
Ntp3354
Rp3355
(dp3356
g21
g23
sg26
Vbin/molprobity.chiral_validation
p3357
sbg0
(g17
g2
Ntp3358
Rp3359
(dp3360
g21
g23
sg26
Vlib/python3.10/site-packages/mmtbx/command_line/chiral_validation.py
p3361
sbsg0
(g17
g2
Ntp3362
Rp3363
(dp3364
g21
g23
sg26
Vbin/mmtbx.fft
p3365
sbg0
(g17
g2
Ntp3366
Rp3367
(dp3368
g21
g23
sg26
Vlib/python3.10/site-packages/mmtbx/command_line/mtz2map.py
p3369
sbsg0
(g17
g2
Ntp3370
Rp3371
(dp3372
g21
g23
sg26
Vbin/molprobity.rotalyze
p3373
sbg0
(g17
g2
Ntp3374
Rp3375
(dp3376
g21
g23
sg26
Vlib/python3.10/site-packages/mmtbx/command_line/rotalyze.py
p3377
sbsg0
(g17
g2
Ntp3378
Rp3379
(dp3380
g21
g23
sg26
Vbin/mmtbx.validation_summary
p3381
sbg0
(g17
g2
Ntp3382
Rp3383
(dp3384
g21
g23
sg26
Vlib/python3.10/site-packages/mmtbx/command_line/validation_summary.py
p3385
sbsg0
(g17
g2
Ntp3386
Rp3387
(dp3388
g21
g23
sg26
Vbin/mmtbx.estimate_bijvoet_ratio
p3389
sbg0
(g17
g2
Ntp3390
Rp3391
(dp3392
g21
g23
sg26
Vlib/python3.10/site-packages/mmtbx/command_line/estimate_bijvoet_ratio.py
p3393
sbsg0
(g17
g2
Ntp3394
Rp3395
(dp3396
g21
g23
sg26
Vbin/cctbx_website.edit_html
p3397
sbg0
(g17
g2
Ntp3398
Rp3399
(dp3400
g21
g23
sg26
Vlib/python3.10/site-packages/cctbx_website/command_line/edit_html.py
p3401
sbsg0
(g17
g2
Ntp3402
Rp3403
(dp3404
g21
g23
sg26
Vbin/cctbx_website.extract_script_from_html_cctbx_doc
p3405
sbg0
(g17
g2
Ntp3406
Rp3407
(dp3408
g21
g23
sg26
Vlib/python3.10/site-packages/cctbx_website/command_line/extract_script_from_html_cctbx_doc.py
p3409
sbsg0
(g17
g2
Ntp3410
Rp3411
(dp3412
g21
g23
sg26
Vbin/cctbx_website.run_pdoc_cctbx_api
p3413
sbg0
(g17
g2
Ntp3414
Rp3415
(dp3416
g21
g23
sg26
Vlib/python3.10/site-packages/cctbx_website/command_line/run_pdoc_cctbx_api.py
p3417
sbsg0
(g17
g2
Ntp3418
Rp3419
(dp3420
g21
g23
sg26
Vbin/cctbx_website.tst_comment_to_docstring
p3421
sbg0
(g17
g2
Ntp3422
Rp3423
(dp3424
g21
g23
sg26
Vlib/python3.10/site-packages/cctbx_website/command_line/tst_comment_to_docstring.py
p3425
sbsg0
(g17
g2
Ntp3426
Rp3427
(dp3428
g21
g23
sg26
Vbin/cctbx_website.build_cctbx_api_site
p3429
sbg0
(g17
g2
Ntp3430
Rp3431
(dp3432
g21
g23
sg26
Vlib/python3.10/site-packages/cctbx_website/command_line/build_cctbx_api_site.csh
p3433
sbsg0
(g17
g2
Ntp3434
Rp3435
(dp3436
g21
g23
sg26
Vbin/cctbx_website.edit_for_boost
p3437
sbg0
(g17
g2
Ntp3438
Rp3439
(dp3440
g21
g23
sg26
Vlib/python3.10/site-packages/cctbx_website/command_line/edit_for_boost.py
p3441
sbsg0
(g17
g2
Ntp3442
Rp3443
(dp3444
g21
g23
sg26
Vbin/cctbx_website.comment_to_docstring
p3445
sbg0
(g17
g2
Ntp3446
Rp3447
(dp3448
g21
g23
sg26
Vlib/python3.10/site-packages/cctbx_website/command_line/comment_to_docstring.py
p3449
sbsg0
(g17
g2
Ntp3450
Rp3451
(dp3452
g21
g23
sg26
Vbin/gltbx.try_imports
p3453
sbg0
(g17
g2
Ntp3454
Rp3455
(dp3456
g21
g23
sg26
Vlib/python3.10/site-packages/gltbx/command_line/try_imports.py
p3457
sbsg0
(g17
g2
Ntp3458
Rp3459
(dp3460
g21
g23
sg26
Vbin/wxtbx.show_file_info
p3461
sbg0
(g17
g2
Ntp3462
Rp3463
(dp3464
g21
g23
sg26
Vlib/python3.10/site-packages/wxtbx/command_line/show_file_info.py
p3465
sbsg0
(g17
g2
Ntp3466
Rp3467
(dp3468
g21
g23
sg26
Vbin/cctbx.wxpython
p3469
sbg0
(g17
g2
Ntp3470
Rp3471
(dp3472
g21
g23
sg26
Vlib/python3.10/site-packages/wxtbx/command_line/wxpython.py
p3473
sbsg0
(g17
g2
Ntp3474
Rp3475
(dp3476
g21
g23
sg26
Vbin/mmtbx.bfactor_plot
p3477
sbg0
(g17
g2
Ntp3478
Rp3479
(dp3480
g21
g23
sg26
Vlib/python3.10/site-packages/wxtbx/command_line/b_plot.py
p3481
sbsg0
(g17
g2
Ntp3482
Rp3483
(dp3484
g21
g23
sg26
Vbin/mmtbx.pdb_statistics
p3485
sbg0
(g17
g2
Ntp3486
Rp3487
(dp3488
g21
g23
sg26
Vlib/python3.10/site-packages/wxtbx/command_line/pdb_statistics.py
p3489
sbsg0
(g17
g2
Ntp3490
Rp3491
(dp3492
g21
g23
sg26
Vbin/wxtbx.plan_sad_experiment
p3493
sbg0
(g17
g2
Ntp3494
Rp3495
(dp3496
g21
g23
sg26
Vlib/python3.10/site-packages/wxtbx/command_line/plan_sad_experiment.py
p3497
sbsg0
(g17
g2
Ntp3498
Rp3499
(dp3500
g21
g23
sg26
Vbin/wxtbx.anomalous_differences_histogram
p3501
sbg0
(g17
g2
Ntp3502
Rp3503
(dp3504
g21
g23
sg26
Vlib/python3.10/site-packages/wxtbx/command_line/anomalous_differences_histogram.py
p3505
sbsg0
(g17
g2
Ntp3506
Rp3507
(dp3508
g21
g23
sg26
Vbin/wxtbx.inspect_r_free_flags
p3509
sbg0
(g17
g2
Ntp3510
Rp3511
(dp3512
g21
g23
sg26
Vlib/python3.10/site-packages/wxtbx/command_line/inspect_r_free_flags.py
p3513
sbsg0
(g17
g2
Ntp3514
Rp3515
(dp3516
g21
g23
sg26
Vbin/cctbx.loggraph
p3517
sbg0
(g17
g2
Ntp3518
Rp3519
(dp3520
g21
g23
sg26
Vlib/python3.10/site-packages/wxtbx/command_line/loggraph.py
p3521
sbsg0
(g17
g2
Ntp3522
Rp3523
(dp3524
g21
g23
sg26
Vbin/cctbx.plot_anomalous_scattering
p3525
sbg0
(g17
g2
Ntp3526
Rp3527
(dp3528
g21
g23
sg26
Vlib/python3.10/site-packages/wxtbx/command_line/plot_anomalous_scattering.py
p3529
sbsg0
(g17
g2
Ntp3530
Rp3531
(dp3532
g21
g23
sg26
Vbin/wxtbx.xtriage
p3533
sbg0
(g17
g2
Ntp3534
Rp3535
(dp3536
g21
g23
sg26
Vlib/python3.10/site-packages/wxtbx/command_line/xtriage.py
p3537
sbsg0
(g17
g2
Ntp3538
Rp3539
(dp3540
g21
g23
sg26
Vbin/mmtbx.xtriage_gui
p3541
sbg3535
ssV_dispatcher_include_at_start
p3542
(lp3543
sV_dispatcher_include_before_command
p3544
(lp3545
sVboost_version
p3546
I108600
sVdispatcher_name
p3547
NsVfull_testing
p3548
I00
sb.